
mbl.elf:     file format elf32-littleriscv


Disassembly of section .init:

08001000 <vector_base>:
 8001000:	aac1                	j	80011d0 <_start>
 8001002:	0001                	nop
	...

080011d0 <_start>:
 80011d0:	30047073          	csrci	mstatus,8
 80011d4:	18000197          	auipc	gp,0x18000
 80011d8:	98c18193          	addi	gp,gp,-1652 # 20000b60 <__global_pointer$>
 80011dc:	18004117          	auipc	sp,0x18004
 80011e0:	12410113          	addi	sp,sp,292 # 20005300 <_sp>
 80011e4:	20000293          	li	t0,512
 80011e8:	7d02a073          	csrs	mmisc_ctl,t0
 80011ec:	00000297          	auipc	t0,0x0
 80011f0:	e1428293          	addi	t0,t0,-492 # 8001000 <vector_base>
 80011f4:	30729073          	csrw	mtvt,t0
 80011f8:	00001297          	auipc	t0,0x1
 80011fc:	5c428293          	addi	t0,t0,1476 # 80027bc <irq_entry>
 8001200:	7ec29073          	csrw	mtvt2,t0
 8001204:	7ec0e073          	csrsi	mtvt2,1
 8001208:	00001297          	auipc	t0,0x1
 800120c:	4b828293          	addi	t0,t0,1208 # 80026c0 <exc_entry>
 8001210:	30529073          	csrw	mtvec,t0
 8001214:	03f00293          	li	t0,63
 8001218:	3052b073          	csrc	mtvec,t0
 800121c:	3051e073          	csrsi	mtvec,3
 8001220:	6299                	lui	t0,0x6
 8001222:	3002a073          	csrs	mstatus,t0
 8001226:	00301073          	fscsr	zero
 800122a:	3202f073          	csrci	mcountinhibit,5
 800122e:	00000517          	auipc	a0,0x0
 8001232:	09e50513          	addi	a0,a0,158 # 80012cc <_sicode>
 8001236:	17fff597          	auipc	a1,0x17fff
 800123a:	0ca58593          	addi	a1,a1,202 # 20000300 <impure_data>
 800123e:	17fff617          	auipc	a2,0x17fff
 8001242:	0c260613          	addi	a2,a2,194 # 20000300 <impure_data>
 8001246:	00c5fa63          	bgeu	a1,a2,800125a <_start+0x8a>
 800124a:	00052283          	lw	t0,0(a0)
 800124e:	0055a023          	sw	t0,0(a1)
 8001252:	0511                	addi	a0,a0,4
 8001254:	0591                	addi	a1,a1,4
 8001256:	fec5eae3          	bltu	a1,a2,800124a <_start+0x7a>
 800125a:	00004517          	auipc	a0,0x4
 800125e:	4ae50513          	addi	a0,a0,1198 # 8005708 <_data_lma>
 8001262:	17fff597          	auipc	a1,0x17fff
 8001266:	09e58593          	addi	a1,a1,158 # 20000300 <impure_data>
 800126a:	17fff617          	auipc	a2,0x17fff
 800126e:	10660613          	addi	a2,a2,262 # 20000370 <ecp_supported_curves>
 8001272:	00c5fa63          	bgeu	a1,a2,8001286 <_start+0xb6>
 8001276:	00052283          	lw	t0,0(a0)
 800127a:	0055a023          	sw	t0,0(a1)
 800127e:	0511                	addi	a0,a0,4
 8001280:	0591                	addi	a1,a1,4
 8001282:	fec5eae3          	bltu	a1,a2,8001276 <_start+0xa6>
 8001286:	17fff517          	auipc	a0,0x17fff
 800128a:	0ea50513          	addi	a0,a0,234 # 20000370 <ecp_supported_curves>
 800128e:	18003597          	auipc	a1,0x18003
 8001292:	fba58593          	addi	a1,a1,-70 # 20004248 <_end>
 8001296:	00b57763          	bgeu	a0,a1,80012a4 <_start+0xd4>
 800129a:	00052023          	sw	zero,0(a0)
 800129e:	0511                	addi	a0,a0,4
 80012a0:	feb56de3          	bltu	a0,a1,800129a <_start+0xca>
 80012a4:	7a9010ef          	jal	ra,800324c <SystemInit>
 80012a8:	00003517          	auipc	a0,0x3
 80012ac:	02050513          	addi	a0,a0,32 # 80042c8 <__libc_fini_array>
 80012b0:	00e030ef          	jal	ra,80042be <atexit>
 80012b4:	048030ef          	jal	ra,80042fc <__libc_init_array>
 80012b8:	3c2010ef          	jal	ra,800267a <_premain_init>
 80012bc:	4501                	li	a0,0
 80012be:	4581                	li	a1,0
 80012c0:	21e5                	jal	80017a8 <main>
 80012c2:	3ec010ef          	jal	ra,80026ae <_postmain_fini>
 80012c6:	a001                	j	80012c6 <_start+0xf6>
	...

Disassembly of section .text:

08001300 <__sf_fake_stderr-0x3b4>:
 8001300:	424d                	li	tp,19
 8001302:	3a4c                	fld	fa1,176(a2)
 8001304:	4620                	lw	s0,72(a2)
 8001306:	7269                	lui	tp,0xffffa
 8001308:	70207473          	csrrci	s0,0x702,0
 800130c:	6972                	flw	fs2,28(sp)
 800130e:	746e                	flw	fs0,248(sp)
 8001310:	0d2e                	slli	s10,s10,0xb
 8001312:	000a                	c.slli	zero,0x2
 8001314:	6f4e                	flw	ft10,208(sp)
 8001316:	6920                	flw	fs0,80(a0)
 8001318:	616d                	addi	sp,sp,240
 800131a:	74206567          	0x74206567
 800131e:	6f62206f          	j	8023a14 <__fini_array_end+0x1e30c>
 8001322:	2820746f          	jal	s0,80085a4 <__fini_array_end+0x2e9c>
 8001326:	6572                	flw	fa0,28(sp)
 8001328:	2074                	fld	fa3,192(s0)
 800132a:	203d                	jal	8001358 <_sicode+0x8c>
 800132c:	6425                	lui	s0,0x9
 800132e:	2e29                	jal	8001648 <_sicode+0x37c>
 8001330:	0a0d                	addi	s4,s4,3
 8001332:	0000                	unimp
 8001334:	424d                	li	tp,19
 8001336:	3a4c                	fld	fa1,176(a2)
 8001338:	4220                	lw	s0,64(a2)
 800133a:	20746f6f          	jal	t5,8047d40 <__fini_array_end+0x42638>
 800133e:	7266                	flw	ft4,120(sp)
 8001340:	49206d6f          	jal	s10,80077d2 <__fini_array_end+0x20ca>
 8001344:	616d                	addi	sp,sp,240
 8001346:	25206567          	0x25206567
 800134a:	2e64                	fld	fs1,216(a2)
 800134c:	0a0d                	addi	s4,s4,3
 800134e:	0000                	unimp
 8001350:	6156                	flw	ft2,84(sp)
 8001352:	696c                	flw	fa1,84(a0)
 8001354:	6164                	flw	fs1,68(a0)
 8001356:	6574                	flw	fa3,76(a0)
 8001358:	4920                	lw	s0,80(a0)
 800135a:	616d                	addi	sp,sp,240
 800135c:	25206567          	0x25206567
 8001360:	2064                	fld	fs1,192(s0)
 8001362:	6166                	flw	ft2,88(sp)
 8001364:	6c69                	lui	s8,0x1a
 8001366:	6465                	lui	s0,0x19
 8001368:	2820                	fld	fs0,80(s0)
 800136a:	6572                	flw	fa0,28(sp)
 800136c:	2074                	fld	fa3,192(s0)
 800136e:	203d                	jal	800139c <_sicode+0xd0>
 8001370:	6425                	lui	s0,0x9
 8001372:	2e29                	jal	800168c <_sicode+0x3c0>
 8001374:	0a0d                	addi	s4,s4,3
 8001376:	0000                	unimp
 8001378:	424d                	li	tp,19
 800137a:	3a4c                	fld	fa1,176(a2)
 800137c:	5620                	lw	s0,104(a2)
 800137e:	6c61                	lui	s8,0x18
 8001380:	6469                	lui	s0,0x1a
 8001382:	7461                	lui	s0,0xffff8
 8001384:	2065                	jal	800142c <_sicode+0x160>
 8001386:	6d49                	lui	s10,0x12
 8001388:	6761                	lui	a4,0x18
 800138a:	2065                	jal	8001432 <_sicode+0x166>
 800138c:	6425                	lui	s0,0x9
 800138e:	4f20                	lw	s0,88(a4)
 8001390:	0a0d2e4b          	fnmsub.d	ft8,fs10,ft0,ft1,rdn
 8001394:	0000                	unimp
 8001396:	0000                	unimp
 8001398:	424d                	li	tp,19
 800139a:	3a4c                	fld	fa1,176(a2)
 800139c:	4a20                	lw	s0,80(a2)
 800139e:	6d75                	lui	s10,0x1d
 80013a0:	2070                	fld	fa2,192(s0)
 80013a2:	6f74                	flw	fa3,92(a4)
 80013a4:	4d20                	lw	s0,88(a0)
 80013a6:	6961                	lui	s2,0x18
 80013a8:	206e                	fld	ft0,216(sp)
 80013aa:	6d49                	lui	s10,0x12
 80013ac:	6761                	lui	a4,0x18
 80013ae:	2065                	jal	8001456 <_sicode+0x18a>
 80013b0:	3028                	fld	fa0,96(s0)
 80013b2:	2578                	fld	fa4,200(a0)
 80013b4:	3830                	fld	fa2,112(s0)
 80013b6:	2978                	fld	fa4,208(a0)
 80013b8:	0d2e                	slli	s10,s10,0xb
 80013ba:	000a                	c.slli	zero,0x2
 80013bc:	6d69                	lui	s10,0x1a
 80013be:	6761                	lui	a4,0x18
 80013c0:	5f65                	li	t5,-7
 80013c2:	5f78                	lw	a4,124(a4)
 80013c4:	6176                	flw	ft2,92(sp)
 80013c6:	696c                	flw	fa1,84(a0)
 80013c8:	6164                	flw	fs1,68(a0)
 80013ca:	6574                	flw	fa3,76(a0)
 80013cc:	203a                	fld	ft0,392(sp)
 80013ce:	6d69                	lui	s10,0x1a
 80013d0:	6761                	lui	a4,0x18
 80013d2:	2065                	jal	800147a <_sicode+0x1ae>
 80013d4:	7366666f          	jal	a2,8067b0a <__fini_array_end+0x62402>
 80013d8:	7465                	lui	s0,0xffff9
 80013da:	6920                	flw	fs0,80(a0)
 80013dc:	78302073          	csrr	zero,0x783
 80013e0:	7825                	lui	a6,0xfffe9
 80013e2:	0d2e                	slli	s10,s10,0xb
 80013e4:	000a                	c.slli	zero,0x2
 80013e6:	0000                	unimp
 80013e8:	6d69                	lui	s10,0x1a
 80013ea:	6761                	lui	a4,0x18
 80013ec:	5f65                	li	t5,-7
 80013ee:	5f78                	lw	a4,124(a4)
 80013f0:	6176                	flw	ft2,92(sp)
 80013f2:	696c                	flw	fa1,84(a0)
 80013f4:	6164                	flw	fs1,68(a0)
 80013f6:	6574                	flw	fa3,76(a0)
 80013f8:	203a                	fld	ft0,392(sp)
 80013fa:	74726563          	bltu	tp,t2,8001b44 <boot_image_find+0x6>
 80013fe:	6f20                	flw	fs0,88(a4)
 8001400:	2072                	fld	ft0,280(sp)
 8001402:	6d69                	lui	s10,0x1a
 8001404:	6761                	lui	a4,0x18
 8001406:	2065                	jal	80014ae <_sicode+0x1e2>
 8001408:	6576                	flw	fa0,92(sp)
 800140a:	6972                	flw	fs2,28(sp)
 800140c:	6966                	flw	fs2,88(sp)
 800140e:	6465                	lui	s0,0x19
 8001410:	6620                	flw	fs0,72(a2)
 8001412:	6961                	lui	s2,0x18
 8001414:	656c                	flw	fa1,76(a0)
 8001416:	2864                	fld	fs1,208(s0)
 8001418:	6425                	lui	s0,0x9
 800141a:	2e29                	jal	8001734 <__sf_fake_stdout+0x40>
 800141c:	0d20                	addi	s0,sp,664
 800141e:	000a                	c.slli	zero,0x2
 8001420:	424d                	li	tp,19
 8001422:	3a4c                	fld	fa1,176(a2)
 8001424:	4920                	lw	s0,80(a0)
 8001426:	616d                	addi	sp,sp,240
 8001428:	63206567          	0x63206567
 800142c:	7265                	lui	tp,0xffff9
 800142e:	2074                	fld	fa3,192(s0)
 8001430:	6e61                	lui	t3,0x18
 8001432:	2064                	fld	fs1,192(s0)
 8001434:	61676973          	csrrsi	s2,0x616,14
 8001438:	7574                	flw	fa3,108(a0)
 800143a:	6572                	flw	fa0,28(sp)
 800143c:	7620                	flw	fs0,104(a2)
 800143e:	7265                	lui	tp,0xffff9
 8001440:	6669                	lui	a2,0x1a
 8001442:	6569                	lui	a0,0x1a
 8001444:	2064                	fld	fs1,192(s0)
 8001446:	0d2e4b4f          	fnmadd.h	fs6,ft8,fs2,ft1,rmm
 800144a:	000a                	c.slli	zero,0x2
 800144c:	6d69                	lui	s10,0x1a
 800144e:	6761                	lui	a4,0x18
 8001450:	5f65                	li	t5,-7
 8001452:	5f78                	lw	a4,124(a4)
 8001454:	6176                	flw	ft2,92(sp)
 8001456:	696c                	flw	fa1,84(a0)
 8001458:	6164                	flw	fs1,68(a0)
 800145a:	6574                	flw	fa3,76(a0)
 800145c:	203a                	fld	ft0,392(sp)
 800145e:	6d49                	lui	s10,0x12
 8001460:	6761                	lui	a4,0x18
 8001462:	2065                	jal	800150a <_sicode+0x23e>
 8001464:	6576                	flw	fa0,92(sp)
 8001466:	6972                	flw	fs2,28(sp)
 8001468:	6966                	flw	fs2,88(sp)
 800146a:	6465                	lui	s0,0x19
 800146c:	6620                	flw	fs0,72(a2)
 800146e:	6961                	lui	s2,0x18
 8001470:	656c                	flw	fa1,76(a0)
 8001472:	2064                	fld	fs1,192(s0)
 8001474:	2528                	fld	fa0,72(a0)
 8001476:	2964                	fld	fs1,208(a0)
 8001478:	202e                	fld	ft0,200(sp)
 800147a:	0a0d                	addi	s4,s4,3
 800147c:	0000                	unimp
 800147e:	0000                	unimp
 8001480:	424d                	li	tp,19
 8001482:	3a4c                	fld	fa1,176(a2)
 8001484:	4920                	lw	s0,80(a0)
 8001486:	616d                	addi	sp,sp,240
 8001488:	76206567          	0x76206567
 800148c:	7265                	lui	tp,0xffff9
 800148e:	6669                	lui	a2,0x1a
 8001490:	6569                	lui	a0,0x1a
 8001492:	2064                	fld	fs1,192(s0)
 8001494:	0d2e4b4f          	fnmadd.h	fs6,ft8,fs2,ft1,rmm
 8001498:	000a                	c.slli	zero,0x2
 800149a:	0000                	unimp
 800149c:	7055                	c.lui	zero,0xffff5
 800149e:	6164                	flw	fs1,68(a0)
 80014a0:	6574                	flw	fa3,76(a0)
 80014a2:	4d20                	lw	s0,88(a0)
 80014a4:	6961                	lui	s2,0x18
 80014a6:	206e                	fld	ft0,216(sp)
 80014a8:	6d49                	lui	s10,0x12
 80014aa:	6761                	lui	a4,0x18
 80014ac:	2065                	jal	8001554 <_sicode+0x288>
 80014ae:	6576                	flw	fa0,92(sp)
 80014b0:	7372                	flw	ft6,60(sp)
 80014b2:	6f69                	lui	t5,0x1a
 80014b4:	206e                	fld	ft0,216(sp)
 80014b6:	6e756f63          	bltu	a0,t2,8001bb4 <boot_image_find+0x76>
 80014ba:	6574                	flw	fa3,76(a0)
 80014bc:	2072                	fld	ft0,280(sp)
 80014be:	6166                	flw	ft2,88(sp)
 80014c0:	6c69                	lui	s8,0x1a
 80014c2:	6465                	lui	s0,0x19
 80014c4:	2528                	fld	fa0,72(a0)
 80014c6:	2964                	fld	fs1,208(a0)
 80014c8:	0d2e                	slli	s10,s10,0xb
 80014ca:	000a                	c.slli	zero,0x2
 80014cc:	41474947          	fmsub.s	fs2,fa4,fs4,fs0,rmm
 80014d0:	0000                	unimp
 80014d2:	0000                	unimp
 80014d4:	424d                	li	tp,19
 80014d6:	3a4c                	fld	fa1,176(a2)
 80014d8:	4320                	lw	s0,64(a4)
 80014da:	7275                	lui	tp,0xffffd
 80014dc:	6572                	flw	fa0,28(sp)
 80014de:	746e                	flw	fs0,248(sp)
 80014e0:	6920                	flw	fs0,80(a0)
 80014e2:	616d                	addi	sp,sp,240
 80014e4:	76206567          	0x76206567
 80014e8:	7265                	lui	tp,0xffff9
 80014ea:	6e6f6973          	csrrsi	s2,0x6e6,30
 80014ee:	6920                	flw	fs0,80(a0)
 80014f0:	73252073          	csrs	0x732,a0
 80014f4:	7825                	lui	a6,0xfffe9
 80014f6:	252e                	fld	fa0,200(sp)
 80014f8:	2e78                	fld	fa4,216(a2)
 80014fa:	7825                	lui	a6,0xfffe9
 80014fc:	252e                	fld	fa0,200(sp)
 80014fe:	3330                	fld	fa2,96(a4)
 8001500:	0d78                	addi	a4,sp,668
 8001502:	000a                	c.slli	zero,0x2
 8001504:	22a2                	fld	ft5,8(sp)
 8001506:	0800                	addi	s0,sp,16
 8001508:	22bc                	fld	fa5,64(a3)
 800150a:	0800                	addi	s0,sp,16
 800150c:	22a4                	fld	fs1,64(a3)
 800150e:	0800                	addi	s0,sp,16
 8001510:	22c2                	fld	ft5,16(sp)
 8001512:	0800                	addi	s0,sp,16
 8001514:	22ca                	fld	ft5,144(sp)
 8001516:	0800                	addi	s0,sp,16
 8001518:	2308                	fld	fa0,0(a4)
 800151a:	0800                	addi	s0,sp,16
	...
 8001524:	0201                	addi	tp,tp,0
 8001526:	07060403          	lb	s0,112(a2) # 1a070 <__stack_size+0x19070>
 800152a:	0908                	addi	a0,sp,144
 800152c:	6172                	flw	ft2,28(sp)
 800152e:	203a                	fld	ft0,392(sp)
 8001530:	7830                	flw	fa2,112(s0)
 8001532:	7825                	lui	a6,0xfffe9
 8001534:	202c                	fld	fa1,64(s0)
 8001536:	7074                	flw	fa3,100(s0)
 8001538:	203a                	fld	ft0,392(sp)
 800153a:	7830                	flw	fa2,112(s0)
 800153c:	7825                	lui	a6,0xfffe9
 800153e:	202c                	fld	fa1,64(s0)
 8001540:	3074                	fld	fa3,224(s0)
 8001542:	203a                	fld	ft0,392(sp)
 8001544:	7830                	flw	fa2,112(s0)
 8001546:	7825                	lui	a6,0xfffe9
 8001548:	202c                	fld	fa1,64(s0)
 800154a:	3174                	fld	fa3,224(a0)
 800154c:	203a                	fld	ft0,392(sp)
 800154e:	7830                	flw	fa2,112(s0)
 8001550:	7825                	lui	a6,0xfffe9
 8001552:	202c                	fld	fa1,64(s0)
 8001554:	3274                	fld	fa3,224(a2)
 8001556:	203a                	fld	ft0,392(sp)
 8001558:	7830                	flw	fa2,112(s0)
 800155a:	7825                	lui	a6,0xfffe9
 800155c:	202c                	fld	fa1,64(s0)
 800155e:	3374                	fld	fa3,224(a4)
 8001560:	203a                	fld	ft0,392(sp)
 8001562:	7830                	flw	fa2,112(s0)
 8001564:	7825                	lui	a6,0xfffe9
 8001566:	202c                	fld	fa1,64(s0)
 8001568:	3474                	fld	fa3,232(s0)
 800156a:	203a                	fld	ft0,392(sp)
 800156c:	7830                	flw	fa2,112(s0)
 800156e:	7825                	lui	a6,0xfffe9
 8001570:	202c                	fld	fa1,64(s0)
 8001572:	3574                	fld	fa3,232(a0)
 8001574:	203a                	fld	ft0,392(sp)
 8001576:	7830                	flw	fa2,112(s0)
 8001578:	7825                	lui	a6,0xfffe9
 800157a:	202c                	fld	fa1,64(s0)
 800157c:	3674                	fld	fa3,232(a2)
 800157e:	203a                	fld	ft0,392(sp)
 8001580:	7830                	flw	fa2,112(s0)
 8001582:	7825                	lui	a6,0xfffe9
 8001584:	610a                	flw	ft2,128(sp)
 8001586:	3a30                	fld	fa2,112(a2)
 8001588:	3020                	fld	fs0,96(s0)
 800158a:	2578                	fld	fa4,200(a0)
 800158c:	2c78                	fld	fa4,216(s0)
 800158e:	6120                	flw	fs0,64(a0)
 8001590:	3a31                	jal	8000eac <compat_prefix+0xeac>
 8001592:	3020                	fld	fs0,96(s0)
 8001594:	2578                	fld	fa4,200(a0)
 8001596:	2c78                	fld	fa4,216(s0)
 8001598:	6120                	flw	fs0,64(a0)
 800159a:	3a32                	fld	fs4,296(sp)
 800159c:	3020                	fld	fs0,96(s0)
 800159e:	2578                	fld	fa4,200(a0)
 80015a0:	2c78                	fld	fa4,216(s0)
 80015a2:	6120                	flw	fs0,64(a0)
 80015a4:	30203a33          	0x30203a33
 80015a8:	2578                	fld	fa4,200(a0)
 80015aa:	2c78                	fld	fa4,216(s0)
 80015ac:	6120                	flw	fs0,64(a0)
 80015ae:	3a34                	fld	fa3,112(a2)
 80015b0:	3020                	fld	fs0,96(s0)
 80015b2:	2578                	fld	fa4,200(a0)
 80015b4:	2c78                	fld	fa4,216(s0)
 80015b6:	6120                	flw	fs0,64(a0)
 80015b8:	3a35                	jal	8000ef4 <compat_prefix+0xef4>
 80015ba:	3020                	fld	fs0,96(s0)
 80015bc:	2578                	fld	fa4,200(a0)
 80015be:	2c78                	fld	fa4,216(s0)
 80015c0:	6120                	flw	fs0,64(a0)
 80015c2:	3a36                	fld	fs4,360(sp)
 80015c4:	3020                	fld	fs0,96(s0)
 80015c6:	2578                	fld	fa4,200(a0)
 80015c8:	2c78                	fld	fa4,216(s0)
 80015ca:	6120                	flw	fs0,64(a0)
 80015cc:	30203a37          	lui	s4,0x30203
 80015d0:	2578                	fld	fa4,200(a0)
 80015d2:	0a78                	addi	a4,sp,284
 80015d4:	636d                	lui	t1,0x1b
 80015d6:	7561                	lui	a0,0xffff8
 80015d8:	203a6573          	csrrsi	a0,0x203,20
 80015dc:	7830                	flw	fa2,112(s0)
 80015de:	7825                	lui	a6,0xfffe9
 80015e0:	202c                	fld	fa1,64(s0)
 80015e2:	656d                	lui	a0,0x1b
 80015e4:	6370                	flw	fa2,68(a4)
 80015e6:	203a                	fld	ft0,392(sp)
 80015e8:	7830                	flw	fa2,112(s0)
 80015ea:	7825                	lui	a6,0xfffe9
 80015ec:	202c                	fld	fa1,64(s0)
 80015ee:	736d                	lui	t1,0xffffb
 80015f0:	6275                	lui	tp,0x1d
 80015f2:	3a6d                	jal	8000fac <compat_prefix+0xfac>
 80015f4:	3020                	fld	fs0,96(s0)
 80015f6:	2578                	fld	fa4,200(a0)
 80015f8:	0a78                	addi	a4,sp,284
 80015fa:	0000                	unimp
 80015fc:	4d4e                	lw	s10,208(sp)
 80015fe:	2049                	jal	8001680 <_sicode+0x3b4>
 8001600:	000d                	c.nop	3
 8001602:	0000                	unimp
 8001604:	434d                	li	t1,19
 8001606:	5541                	li	a0,-16
 8001608:	3a204553          	0x3a204553
 800160c:	3020                	fld	fs0,96(s0)
 800160e:	2578                	fld	fa4,200(a0)
 8001610:	786c                	flw	fa1,116(s0)
 8001612:	0a0d                	addi	s4,s4,3
 8001614:	0000                	unimp
 8001616:	0000                	unimp
 8001618:	444d                	li	s0,19
 800161a:	53554143          	fmadd.d	ft2,fa0,fs5,fa0,rmm
 800161e:	3a45                	jal	8000fce <compat_prefix+0xfce>
 8001620:	3020                	fld	fs0,96(s0)
 8001622:	2578                	fld	fa4,200(a0)
 8001624:	786c                	flw	fa1,116(s0)
 8001626:	0a0d                	addi	s4,s4,3
 8001628:	0000                	unimp
 800162a:	0000                	unimp
 800162c:	454d                	li	a0,19
 800162e:	4350                	lw	a2,4(a4)
 8001630:	2020                	fld	fs0,64(s0)
 8001632:	3a20                	fld	fs0,112(a2)
 8001634:	3020                	fld	fs0,96(s0)
 8001636:	2578                	fld	fa4,200(a0)
 8001638:	786c                	flw	fa1,116(s0)
 800163a:	0a0d                	addi	s4,s4,3
 800163c:	0000                	unimp
 800163e:	0000                	unimp
 8001640:	544d                	li	s0,-13
 8001642:	4156                	lw	sp,84(sp)
 8001644:	204c                	fld	fa1,128(s0)
 8001646:	3a20                	fld	fs0,112(a2)
 8001648:	3020                	fld	fs0,96(s0)
 800164a:	2578                	fld	fa4,200(a0)
 800164c:	786c                	flw	fa1,116(s0)
 800164e:	0a0d                	addi	s4,s4,3
 8001650:	0000                	unimp
 8001652:	0000                	unimp
 8001654:	351a                	fld	fa0,416(sp)
 8001656:	0800                	addi	s0,sp,16
 8001658:	3792                	fld	fa5,288(sp)
 800165a:	0800                	addi	s0,sp,16
 800165c:	378e                	fld	fa5,224(sp)
 800165e:	0800                	addi	s0,sp,16
 8001660:	351a                	fld	fa0,416(sp)
 8001662:	0800                	addi	s0,sp,16
 8001664:	3766                	fld	fa4,120(sp)
 8001666:	0800                	addi	s0,sp,16
 8001668:	6d66                	flw	fs10,88(sp)
 800166a:	72772063          	0x72772063
 800166e:	7469                	lui	s0,0xffffa
 8001670:	2065                	jal	8001718 <__sf_fake_stdout+0x24>
 8001672:	6166                	flw	ft2,88(sp)
 8001674:	6c69                	lui	s8,0x1a
 8001676:	202c                	fld	fa1,64(s0)
 8001678:	6572                	flw	fa0,28(sp)
 800167a:	3d74                	fld	fa3,248(a0)
 800167c:	6425                	lui	s0,0x9
 800167e:	0a0d                	addi	s4,s4,3
 8001680:	0000                	unimp
 8001682:	0000                	unimp
 8001684:	6d66                	flw	fs10,88(sp)
 8001686:	6e6f2063          	0x6e6f2063
 800168a:	6974                	flw	fa3,84(a0)
 800168c:	756e                	flw	fa0,248(sp)
 800168e:	5f73756f          	jal	a0,8039484 <__fini_array_end+0x33d7c>
 8001692:	7270                	flw	fa2,100(a2)
 8001694:	6172676f          	jal	a4,80284aa <__fini_array_end+0x22da2>
 8001698:	206d                	jal	8001742 <__sf_fake_stdout+0x4e>
 800169a:	6166                	flw	ft2,88(sp)
 800169c:	6c69                	lui	s8,0x1a
 800169e:	202c                	fld	fa1,64(s0)
 80016a0:	6572                	flw	fa0,28(sp)
 80016a2:	3d74                	fld	fa3,248(a0)
 80016a4:	6425                	lui	s0,0x9
 80016a6:	0a0d                	addi	s4,s4,3
 80016a8:	0000                	unimp
 80016aa:	0000                	unimp
 80016ac:	5245524f          	fnmadd.d	ft4,fa0,ft4,fa0,unknown
 80016b0:	0d52                	slli	s10,s10,0x14
	...

080016b4 <__sf_fake_stderr>:
	...

080016d4 <__sf_fake_stdin>:
	...

080016f4 <__sf_fake_stdout>:
	...
 8001714:	2d23 2b30 0020 0000 6c68 004c 6665 4567     #-0+ ...hlL.efgE
 8001724:	4746 0000 3130 3332 3534 3736 3938 4241     FG..0123456789AB
 8001734:	4443 4645 0000 0000 3130 3332 3534 3736     CDEF....01234567
 8001744:	3938 6261 6463 6665 0000 0000 3b9a 0000     89abcdef.....;..
 8001754:	3bb0 0000 3b70 0000 3b70 0000 3b70 0000     .;..p;..p;..p;..
 8001764:	3b70 0000 3bb0 0000 3b70 0000 3b70 0000     p;...;..p;..p;..
 8001774:	3b70 0000 3b70 0000 3d06 0000 3bee 0000     p;..p;...=...;..
 8001784:	3cda 0000 3b70 0000 3b70 0000 3d34 0000     .<..p;..p;..4=..
 8001794:	3b70 0000 3bee 0000 3b70 0000 3b70 0000     p;...;..p;..p;..
 80017a4:	3ce2 0000                                   .<..

080017a8 <main>:
 80017a8:	2e7022ef          	jal	t0,800428e <__riscv_save_0>
 80017ac:	7171                	addi	sp,sp,-176
 80017ae:	200006b7          	lui	a3,0x20000
 80017b2:	20068793          	addi	a5,a3,512 # 20000200 <mbedtls_mpi_mul_mpi_sw+0x14091a20>
 80017b6:	c402                	sw	zero,8(sp)
 80017b8:	c602                	sw	zero,12(sp)
 80017ba:	000103a3          	sb	zero,7(sp)
 80017be:	0818                	addi	a4,sp,16
 80017c0:	2a068693          	addi	a3,a3,672
 80017c4:	0007a803          	lw	a6,0(a5)
 80017c8:	43c8                	lw	a0,4(a5)
 80017ca:	478c                	lw	a1,8(a5)
 80017cc:	47d0                	lw	a2,12(a5)
 80017ce:	01072023          	sw	a6,0(a4) # 18000 <__stack_size+0x17000>
 80017d2:	c348                	sw	a0,4(a4)
 80017d4:	c70c                	sw	a1,8(a4)
 80017d6:	c750                	sw	a2,12(a4)
 80017d8:	07c1                	addi	a5,a5,16
 80017da:	0741                	addi	a4,a4,16
 80017dc:	fed794e3          	bne	a5,a3,80017c4 <main+0x1c>
 80017e0:	4742                	lw	a4,16(sp)
 80017e2:	bacec7b7          	lui	a5,0xbacec
 80017e6:	0de78793          	addi	a5,a5,222 # bacec0de <_sp+0x9ace6dde>
 80017ea:	1ef71463          	bne	a4,a5,80019d2 <main+0x22a>
 80017ee:	104010ef          	jal	ra,80028f2 <rom_symbol_init>
 80017f2:	20000537          	lui	a0,0x20000
 80017f6:	658d                	lui	a1,0x3
 80017f8:	56050513          	addi	a0,a0,1376 # 20000560 <alloc_buf>
 80017fc:	20000437          	lui	s0,0x20000
 8001800:	03f58097          	auipc	ra,0x3f58
 8001804:	446080e7          	jalr	1094(ra) # bf59c46 <mbedtls_memory_buffer_alloc_init>
 8001808:	36040413          	addi	s0,s0,864 # 20000360 <p_rom_api>
 800180c:	401c                	lw	a5,0(s0)
 800180e:	00710613          	addi	a2,sp,7
 8001812:	4585                	li	a1,1
 8001814:	5bdc                	lw	a5,52(a5)
 8001816:	4541                	li	a0,16
 8001818:	9782                	jalr	a5
 800181a:	e10d                	bnez	a0,800183c <main+0x94>
 800181c:	00714783          	lbu	a5,7(sp)
 8001820:	cf91                	beqz	a5,800183c <main+0x94>
 8001822:	401c                	lw	a5,0(s0)
 8001824:	000103a3          	sb	zero,7(sp)
 8001828:	00710613          	addi	a2,sp,7
 800182c:	5b9c                	lw	a5,48(a5)
 800182e:	4585                	li	a1,1
 8001830:	4541                	li	a0,16
 8001832:	9782                	jalr	a5
 8001834:	557d                	li	a0,-1
 8001836:	371010ef          	jal	ra,80033a6 <xmodem_start>
 800183a:	a031                	j	8001846 <main+0x9e>
 800183c:	6561                	lui	a0,0x18
 800183e:	6a050513          	addi	a0,a0,1696 # 186a0 <__stack_size+0x176a0>
 8001842:	365010ef          	jal	ra,80033a6 <xmodem_start>
 8001846:	6485                	lui	s1,0x1
 8001848:	10448513          	addi	a0,s1,260 # 1104 <__stack_size+0x104>
 800184c:	139000ef          	jal	ra,8002184 <rcu_periph_clock_enable>
 8001850:	c0048513          	addi	a0,s1,-1024
 8001854:	131000ef          	jal	ra,8002184 <rcu_periph_clock_enable>
 8001858:	04000613          	li	a2,64
 800185c:	45a9                	li	a1,10
 800185e:	40020537          	lui	a0,0x40020
 8001862:	0c3000ef          	jal	ra,8002124 <gpio_af_set>
 8001866:	08000613          	li	a2,128
 800186a:	45a1                	li	a1,8
 800186c:	40020537          	lui	a0,0x40020
 8001870:	0b5000ef          	jal	ra,8002124 <gpio_af_set>
 8001874:	04000693          	li	a3,64
 8001878:	4601                	li	a2,0
 800187a:	4589                	li	a1,2
 800187c:	40020537          	lui	a0,0x40020
 8001880:	007000ef          	jal	ra,8002086 <gpio_mode_set>
 8001884:	04000693          	li	a3,64
 8001888:	4609                	li	a2,2
 800188a:	4581                	li	a1,0
 800188c:	40020537          	lui	a0,0x40020
 8001890:	045000ef          	jal	ra,80020d4 <gpio_output_options_set>
 8001894:	08000693          	li	a3,128
 8001898:	4601                	li	a2,0
 800189a:	4589                	li	a1,2
 800189c:	40020537          	lui	a0,0x40020
 80018a0:	7e6000ef          	jal	ra,8002086 <gpio_mode_set>
 80018a4:	08000693          	li	a3,128
 80018a8:	4609                	li	a2,2
 80018aa:	4581                	li	a1,0
 80018ac:	40020537          	lui	a0,0x40020
 80018b0:	025000ef          	jal	ra,80020d4 <gpio_output_options_set>
 80018b4:	40011537          	lui	a0,0x40011
 80018b8:	28f000ef          	jal	ra,8002346 <usart_deinit>
 80018bc:	65f1                	lui	a1,0x1c
 80018be:	20058593          	addi	a1,a1,512 # 1c200 <__stack_size+0x1b200>
 80018c2:	40011537          	lui	a0,0x40011
 80018c6:	2df000ef          	jal	ra,80023a4 <usart_baudrate_set>
 80018ca:	4591                	li	a1,4
 80018cc:	40011537          	lui	a0,0x40011
 80018d0:	363000ef          	jal	ra,8002432 <usart_receive_config>
 80018d4:	45a1                	li	a1,8
 80018d6:	40011537          	lui	a0,0x40011
 80018da:	34b000ef          	jal	ra,8002424 <usart_transmit_config>
 80018de:	4595                	li	a1,5
 80018e0:	40011537          	lui	a0,0x40011
 80018e4:	3c1000ef          	jal	ra,80024a4 <usart_interrupt_enable>
 80018e8:	40011537          	lui	a0,0x40011
 80018ec:	32f000ef          	jal	ra,800241a <usart_enable>
 80018f0:	401c                	lw	a5,0(s0)
 80018f2:	080015b7          	lui	a1,0x8001
 80018f6:	30058593          	addi	a1,a1,768 # 8001300 <_sicode+0x34>
 80018fa:	43dc                	lw	a5,4(a5)
 80018fc:	4505                	li	a0,1
 80018fe:	9782                	jalr	a5
 8001900:	006c                	addi	a1,sp,12
 8001902:	0028                	addi	a0,sp,8
 8001904:	2c2d                	jal	8001b3e <boot_image_find>
 8001906:	401c                	lw	a5,0(s0)
 8001908:	14054e63          	bltz	a0,8001a64 <main+0x2bc>
 800190c:	43dc                	lw	a5,4(a5)
 800190e:	4622                	lw	a2,8(sp)
 8001910:	080015b7          	lui	a1,0x8001
 8001914:	33458593          	addi	a1,a1,820 # 8001334 <_sicode+0x68>
 8001918:	4505                	li	a0,1
 800191a:	9782                	jalr	a5
 800191c:	4722                	lw	a4,8(sp)
 800191e:	4785                	li	a5,1
 8001920:	18f70263          	beq	a4,a5,8001aa4 <main+0x2fc>
 8001924:	6505                	lui	a0,0x1
 8001926:	c1550513          	addi	a0,a0,-1003 # c15 <__stack_size-0x3eb>
 800192a:	05b000ef          	jal	ra,8002184 <rcu_periph_clock_enable>
 800192e:	401c                	lw	a5,0(s0)
 8001930:	4505                	li	a0,1
 8001932:	5bbc                	lw	a5,112(a5)
 8001934:	9782                	jalr	a5
 8001936:	4532                	lw	a0,12(sp)
 8001938:	02014603          	lbu	a2,32(sp)
 800193c:	104c                	addi	a1,sp,36
 800193e:	1501                	addi	a0,a0,-32
 8001940:	2639                	jal	8001c4e <image_x_validate>
 8001942:	401c                	lw	a5,0(s0)
 8001944:	4622                	lw	a2,8(sp)
 8001946:	43dc                	lw	a5,4(a5)
 8001948:	12054b63          	bltz	a0,8001a7e <main+0x2d6>
 800194c:	080015b7          	lui	a1,0x8001
 8001950:	37858593          	addi	a1,a1,888 # 8001378 <_sicode+0xac>
 8001954:	4505                	li	a0,1
 8001956:	9782                	jalr	a5
 8001958:	401c                	lw	a5,0(s0)
 800195a:	00814503          	lbu	a0,8(sp)
 800195e:	4609                	li	a2,2
 8001960:	43bc                	lw	a5,64(a5)
 8001962:	4599                	li	a1,6
 8001964:	080004b7          	lui	s1,0x8000
 8001968:	9782                	jalr	a5
 800196a:	401c                	lw	a5,0(s0)
 800196c:	00814503          	lbu	a0,8(sp)
 8001970:	47bc                	lw	a5,72(a5)
 8001972:	9782                	jalr	a5
 8001974:	4581                	li	a1,0
 8001976:	4501                	li	a0,0
 8001978:	03f5d097          	auipc	ra,0x3f5d
 800197c:	0e0080e7          	jalr	224(ra) # bf5ea58 <mbedtls_platform_set_calloc_free>
 8001980:	4501                	li	a0,0
 8001982:	03f5d097          	auipc	ra,0x3f5d
 8001986:	130080e7          	jalr	304(ra) # bf5eab2 <mbedtls_platform_set_snprintf>
 800198a:	4501                	li	a0,0
 800198c:	03f5d097          	auipc	ra,0x3f5d
 8001990:	16c080e7          	jalr	364(ra) # bf5eaf8 <mbedtls_platform_set_printf>
 8001994:	46b2                	lw	a3,12(sp)
 8001996:	4722                	lw	a4,8(sp)
 8001998:	4785                	li	a5,1
 800199a:	94b6                	add	s1,s1,a3
 800199c:	0cf70d63          	beq	a4,a5,8001a76 <main+0x2ce>
 80019a0:	401c                	lw	a5,0(s0)
 80019a2:	8626                	mv	a2,s1
 80019a4:	43dc                	lw	a5,4(a5)
 80019a6:	080015b7          	lui	a1,0x8001
 80019aa:	39858593          	addi	a1,a1,920 # 8001398 <_sicode+0xcc>
 80019ae:	4505                	li	a0,1
 80019b0:	9782                	jalr	a5
 80019b2:	2a81                	jal	8001b02 <log_uart_idle_wait>
 80019b4:	00000617          	auipc	a2,0x0
 80019b8:	18260613          	addi	a2,a2,386 # 8001b36 <reloc_iv>
 80019bc:	9602                	jalr	a2
 80019be:	8482                	jr	s1
 80019c0:	800017b7          	lui	a5,0x80001
 80019c4:	d1001737          	lui	a4,0xd1001
 80019c8:	a5f78793          	addi	a5,a5,-1441 # 80000a5f <_sp+0x5fffb75f>
 80019cc:	fef72823          	sw	a5,-16(a4) # d1000ff0 <_sp+0xb0ffbcf0>
 80019d0:	a001                	j	80019d0 <main+0x228>
 80019d2:	20000613          	li	a2,512
 80019d6:	4581                	li	a1,0
 80019d8:	20000537          	lui	a0,0x20000
 80019dc:	25b020ef          	jal	ra,8004436 <memset>
 80019e0:	0a000613          	li	a2,160
 80019e4:	4581                	li	a1,0
 80019e6:	0808                	addi	a0,sp,16
 80019e8:	24f020ef          	jal	ra,8004436 <memset>
 80019ec:	707000ef          	jal	ra,80028f2 <rom_symbol_init>
 80019f0:	20000537          	lui	a0,0x20000
 80019f4:	658d                	lui	a1,0x3
 80019f6:	56050513          	addi	a0,a0,1376 # 20000560 <alloc_buf>
 80019fa:	03f58097          	auipc	ra,0x3f58
 80019fe:	24c080e7          	jalr	588(ra) # bf59c46 <mbedtls_memory_buffer_alloc_init>
 8001a02:	6405                	lui	s0,0x1
 8001a04:	d0340513          	addi	a0,s0,-765 # d03 <__stack_size-0x2fd>
 8001a08:	77c000ef          	jal	ra,8002184 <rcu_periph_clock_enable>
 8001a0c:	d0440513          	addi	a0,s0,-764
 8001a10:	774000ef          	jal	ra,8002184 <rcu_periph_clock_enable>
 8001a14:	d0540513          	addi	a0,s0,-763
 8001a18:	20000437          	lui	s0,0x20000
 8001a1c:	768000ef          	jal	ra,8002184 <rcu_periph_clock_enable>
 8001a20:	36040413          	addi	s0,s0,864 # 20000360 <p_rom_api>
 8001a24:	401c                	lw	a5,0(s0)
 8001a26:	57bc                	lw	a5,104(a5)
 8001a28:	9782                	jalr	a5
 8001a2a:	401c                	lw	a5,0(s0)
 8001a2c:	40011537          	lui	a0,0x40011
 8001a30:	57fc                	lw	a5,108(a5)
 8001a32:	9782                	jalr	a5
 8001a34:	401c                	lw	a5,0(s0)
 8001a36:	00610613          	addi	a2,sp,6
 8001a3a:	4585                	li	a1,1
 8001a3c:	5bdc                	lw	a5,52(a5)
 8001a3e:	4509                	li	a0,2
 8001a40:	9782                	jalr	a5
 8001a42:	401c                	lw	a5,0(s0)
 8001a44:	ed21                	bnez	a0,8001a9c <main+0x2f4>
 8001a46:	00614503          	lbu	a0,6(sp)
 8001a4a:	5f9c                	lw	a5,56(a5)
 8001a4c:	9782                	jalr	a5
 8001a4e:	401c                	lw	a5,0(s0)
 8001a50:	47c8                	lw	a0,12(a5)
 8001a52:	03f57097          	auipc	ra,0x3f57
 8001a56:	8aa080e7          	jalr	-1878(ra) # bf582fc <mbedtls_platform_set_hardware_poll>
 8001a5a:	03f55097          	auipc	ra,0x3f55
 8001a5e:	5d0080e7          	jalr	1488(ra) # bf5702a <mbedtls_ecp_curve_val_init>
 8001a62:	b36d                	j	800180c <main+0x64>
 8001a64:	43dc                	lw	a5,4(a5)
 8001a66:	080015b7          	lui	a1,0x8001
 8001a6a:	862a                	mv	a2,a0
 8001a6c:	31458593          	addi	a1,a1,788 # 8001314 <_sicode+0x48>
 8001a70:	4509                	li	a0,2
 8001a72:	9782                	jalr	a5
 8001a74:	a001                	j	8001a74 <main+0x2cc>
 8001a76:	401c                	lw	a5,0(s0)
 8001a78:	081ea637          	lui	a2,0x81ea
 8001a7c:	b725                	j	80019a4 <main+0x1fc>
 8001a7e:	080015b7          	lui	a1,0x8001
 8001a82:	86aa                	mv	a3,a0
 8001a84:	35058593          	addi	a1,a1,848 # 8001350 <_sicode+0x84>
 8001a88:	4509                	li	a0,2
 8001a8a:	9782                	jalr	a5
 8001a8c:	401c                	lw	a5,0(s0)
 8001a8e:	00814503          	lbu	a0,8(sp)
 8001a92:	4611                	li	a2,4
 8001a94:	43bc                	lw	a5,64(a5)
 8001a96:	4599                	li	a1,6
 8001a98:	9782                	jalr	a5
 8001a9a:	b71d                	j	80019c0 <main+0x218>
 8001a9c:	5f9c                	lw	a5,56(a5)
 8001a9e:	4511                	li	a0,4
 8001aa0:	9782                	jalr	a5
 8001aa2:	b775                	j	8001a4e <main+0x2a6>
 8001aa4:	2895                	jal	8001b18 <flash_offset_mapping>
 8001aa6:	bdbd                	j	8001924 <main+0x17c>

08001aa8 <_write>:
 8001aa8:	7e6022ef          	jal	t0,800428e <__riscv_save_0>
 8001aac:	c231                	beqz	a2,8001af0 <_write+0x48>
 8001aae:	84b2                	mv	s1,a2
 8001ab0:	892e                	mv	s2,a1
 8001ab2:	4401                	li	s0,0
 8001ab4:	70700593          	li	a1,1799
 8001ab8:	40011537          	lui	a0,0x40011
 8001abc:	1a3000ef          	jal	ra,800245e <usart_flag_get>
 8001ac0:	d975                	beqz	a0,8001ab4 <_write+0xc>
 8001ac2:	008907b3          	add	a5,s2,s0
 8001ac6:	40011537          	lui	a0,0x40011
 8001aca:	0405                	addi	s0,s0,1
 8001acc:	00078583          	lb	a1,0(a5)
 8001ad0:	0805c5b3          	zext.h	a1,a1
 8001ad4:	16d000ef          	jal	ra,8002440 <usart_data_transmit>
 8001ad8:	fc849ee3          	bne	s1,s0,8001ab4 <_write+0xc>
 8001adc:	70600593          	li	a1,1798
 8001ae0:	40011537          	lui	a0,0x40011
 8001ae4:	17b000ef          	jal	ra,800245e <usart_flag_get>
 8001ae8:	d975                	beqz	a0,8001adc <_write+0x34>
 8001aea:	8522                	mv	a0,s0
 8001aec:	7c60206f          	j	80042b2 <__riscv_restore_0>
 8001af0:	70600593          	li	a1,1798
 8001af4:	40011537          	lui	a0,0x40011
 8001af8:	4401                	li	s0,0
 8001afa:	165000ef          	jal	ra,800245e <usart_flag_get>
 8001afe:	dd79                	beqz	a0,8001adc <_write+0x34>
 8001b00:	b7ed                	j	8001aea <_write+0x42>

08001b02 <log_uart_idle_wait>:
 8001b02:	78c022ef          	jal	t0,800428e <__riscv_save_0>
 8001b06:	70600593          	li	a1,1798
 8001b0a:	40011537          	lui	a0,0x40011
 8001b0e:	151000ef          	jal	ra,800245e <usart_flag_get>
 8001b12:	d975                	beqz	a0,8001b06 <log_uart_idle_wait+0x4>
 8001b14:	79e0206f          	j	80042b2 <__riscv_restore_0>

08001b18 <flash_offset_mapping>:
 8001b18:	776022ef          	jal	t0,800428e <__riscv_save_0>
 8001b1c:	2c85                	jal	8001d8c <fmc_unlock>
 8001b1e:	2915                	jal	8001f52 <ob_unlock>
 8001b20:	1e900593          	li	a1,489
 8001b24:	4529                	li	a0,10
 8001b26:	29c1                	jal	8001ff6 <fmc_offset_region_config>
 8001b28:	1e000513          	li	a0,480
 8001b2c:	21ed                	jal	8002016 <fmc_offset_value_config>
 8001b2e:	2199                	jal	8001f74 <ob_lock>
 8001b30:	2cbd                	jal	8001dae <fmc_lock>
 8001b32:	7800206f          	j	80042b2 <__riscv_restore_0>

08001b36 <reloc_iv>:
 8001b36:	0511                	addi	a0,a0,4
 8001b38:	30551073          	csrw	mtvec,a0
 8001b3c:	8082                	ret

08001b3e <boot_image_find>:
 8001b3e:	736022ef          	jal	t0,8004274 <__riscv_save_4>
 8001b42:	1141                	addi	sp,sp,-16
 8001b44:	00010723          	sb	zero,14(sp)
 8001b48:	000107a3          	sb	zero,15(sp)
 8001b4c:	0e058f63          	beqz	a1,8001c4a <boot_image_find+0x10c>
 8001b50:	20000937          	lui	s2,0x20000
 8001b54:	36092783          	lw	a5,864(s2) # 20000360 <p_rom_api>
 8001b58:	84ae                	mv	s1,a1
 8001b5a:	8a2a                	mv	s4,a0
 8001b5c:	5bdc                	lw	a5,52(a5)
 8001b5e:	00e10613          	addi	a2,sp,14
 8001b62:	4585                	li	a1,1
 8001b64:	450d                	li	a0,3
 8001b66:	9782                	jalr	a5
 8001b68:	59fd                	li	s3,-1
 8001b6a:	842a                	mv	s0,a0
 8001b6c:	0d354b63          	blt	a0,s3,8001c42 <boot_image_find+0x104>
 8001b70:	36092783          	lw	a5,864(s2)
 8001b74:	00f10613          	addi	a2,sp,15
 8001b78:	4585                	li	a1,1
 8001b7a:	5bdc                	lw	a5,52(a5)
 8001b7c:	4511                	li	a0,4
 8001b7e:	9782                	jalr	a5
 8001b80:	0d354363          	blt	a0,s3,8001c46 <boot_image_find+0x108>
 8001b84:	e90d                	bnez	a0,8001bb6 <boot_image_find+0x78>
 8001b86:	5571                	li	a0,-4
 8001b88:	ec2d                	bnez	s0,8001c02 <boot_image_find+0xc4>
 8001b8a:	00e14783          	lbu	a5,14(sp)
 8001b8e:	0017f713          	andi	a4,a5,1
 8001b92:	eb3d                	bnez	a4,8001c08 <boot_image_find+0xca>
 8001b94:	00f14783          	lbu	a5,15(sp)
 8001b98:	0017f713          	andi	a4,a5,1
 8001b9c:	c751                	beqz	a4,8001c28 <boot_image_find+0xea>
 8001b9e:	0067f713          	andi	a4,a5,6
 8001ba2:	4691                	li	a3,4
 8001ba4:	08d70263          	beq	a4,a3,8001c28 <boot_image_find+0xea>
 8001ba8:	0187f713          	andi	a4,a5,24
 8001bac:	46c1                	li	a3,16
 8001bae:	06d70d63          	beq	a4,a3,8001c28 <boot_image_find+0xea>
 8001bb2:	4785                	li	a5,1
 8001bb4:	a091                	j	8001bf8 <boot_image_find+0xba>
 8001bb6:	e80d                	bnez	s0,8001be8 <boot_image_find+0xaa>
 8001bb8:	00e14783          	lbu	a5,14(sp)
 8001bbc:	0017f713          	andi	a4,a5,1
 8001bc0:	cb11                	beqz	a4,8001bd4 <boot_image_find+0x96>
 8001bc2:	0067f713          	andi	a4,a5,6
 8001bc6:	4691                	li	a3,4
 8001bc8:	00d70663          	beq	a4,a3,8001bd4 <boot_image_find+0x96>
 8001bcc:	8be1                	andi	a5,a5,24
 8001bce:	4741                	li	a4,16
 8001bd0:	06e79763          	bne	a5,a4,8001c3e <boot_image_find+0x100>
 8001bd4:	00e14783          	lbu	a5,14(sp)
 8001bd8:	4729                	li	a4,10
 8001bda:	8bf9                	andi	a5,a5,30
 8001bdc:	06e78163          	beq	a5,a4,8001c3e <boot_image_find+0x100>
 8001be0:	556d                	li	a0,-5
 8001be2:	0141                	addi	sp,sp,16
 8001be4:	6c40206f          	j	80042a8 <__riscv_restore_4>
 8001be8:	36092783          	lw	a5,864(s2)
 8001bec:	4605                	li	a2,1
 8001bee:	4585                	li	a1,1
 8001bf0:	43bc                	lw	a5,64(a5)
 8001bf2:	4501                	li	a0,0
 8001bf4:	9782                	jalr	a5
 8001bf6:	4781                	li	a5,0
 8001bf8:	00fa2023          	sw	a5,0(s4) # 30203000 <_sp+0x101fdd00>
 8001bfc:	67a9                	lui	a5,0xa
 8001bfe:	c09c                	sw	a5,0(s1)
 8001c00:	4501                	li	a0,0
 8001c02:	0141                	addi	sp,sp,16
 8001c04:	6a40206f          	j	80042a8 <__riscv_restore_4>
 8001c08:	0067f713          	andi	a4,a5,6
 8001c0c:	4691                	li	a3,4
 8001c0e:	f8d703e3          	beq	a4,a3,8001b94 <boot_image_find+0x56>
 8001c12:	0187f713          	andi	a4,a5,24
 8001c16:	46c1                	li	a3,16
 8001c18:	4781                	li	a5,0
 8001c1a:	fcd71fe3          	bne	a4,a3,8001bf8 <boot_image_find+0xba>
 8001c1e:	00f14783          	lbu	a5,15(sp)
 8001c22:	0017f713          	andi	a4,a5,1
 8001c26:	ff25                	bnez	a4,8001b9e <boot_image_find+0x60>
 8001c28:	00e14683          	lbu	a3,14(sp)
 8001c2c:	4729                	li	a4,10
 8001c2e:	8af9                	andi	a3,a3,30
 8001c30:	00e68763          	beq	a3,a4,8001c3e <boot_image_find+0x100>
 8001c34:	8bf9                	andi	a5,a5,30
 8001c36:	fae795e3          	bne	a5,a4,8001be0 <boot_image_find+0xa2>
 8001c3a:	4785                	li	a5,1
 8001c3c:	bf75                	j	8001bf8 <boot_image_find+0xba>
 8001c3e:	4781                	li	a5,0
 8001c40:	bf65                	j	8001bf8 <boot_image_find+0xba>
 8001c42:	5579                	li	a0,-2
 8001c44:	bf7d                	j	8001c02 <boot_image_find+0xc4>
 8001c46:	5575                	li	a0,-3
 8001c48:	bf6d                	j	8001c02 <boot_image_find+0xc4>
 8001c4a:	557d                	li	a0,-1
 8001c4c:	bf5d                	j	8001c02 <boot_image_find+0xc4>

08001c4e <image_x_validate>:
 8001c4e:	626022ef          	jal	t0,8004274 <__riscv_save_4>
 8001c52:	20000937          	lui	s2,0x20000
 8001c56:	36092783          	lw	a5,864(s2) # 20000360 <p_rom_api>
 8001c5a:	89ae                	mv	s3,a1
 8001c5c:	080015b7          	lui	a1,0x8001
 8001c60:	43d8                	lw	a4,4(a5)
 8001c62:	8432                	mv	s0,a2
 8001c64:	7159                	addi	sp,sp,-112
 8001c66:	84aa                	mv	s1,a0
 8001c68:	862a                	mv	a2,a0
 8001c6a:	3bc58593          	addi	a1,a1,956 # 80013bc <_sicode+0xf0>
 8001c6e:	4515                	li	a0,5
 8001c70:	9702                	jalr	a4
 8001c72:	c439                	beqz	s0,8001cc0 <image_x_validate+0x72>
 8001c74:	470d                	li	a4,3
 8001c76:	36092783          	lw	a5,864(s2)
 8001c7a:	04e40863          	beq	s0,a4,8001cca <image_x_validate+0x7c>
 8001c7e:	4705                	li	a4,1
 8001c80:	06e40863          	beq	s0,a4,8001cf0 <image_x_validate+0xa2>
 8001c84:	47fc                	lw	a5,76(a5)
 8001c86:	45b2                	lw	a1,12(sp)
 8001c88:	4509                	li	a0,2
 8001c8a:	9782                	jalr	a5
 8001c8c:	842a                	mv	s0,a0
 8001c8e:	08054463          	bltz	a0,8001d16 <image_x_validate+0xc8>
 8001c92:	e51d                	bnez	a0,8001cc0 <image_x_validate+0x72>
 8001c94:	36092783          	lw	a5,864(s2)
 8001c98:	08001637          	lui	a2,0x8001
 8001c9c:	080015b7          	lui	a1,0x8001
 8001ca0:	0047a883          	lw	a7,4(a5) # a004 <__stack_size+0x9004>
 8001ca4:	4811                	li	a6,4
 8001ca6:	478d                	li	a5,3
 8001ca8:	4701                	li	a4,0
 8001caa:	4685                	li	a3,1
 8001cac:	4cc60613          	addi	a2,a2,1228 # 80014cc <_sicode+0x200>
 8001cb0:	4d458593          	addi	a1,a1,1236 # 80014d4 <_sicode+0x208>
 8001cb4:	4505                	li	a0,1
 8001cb6:	9882                	jalr	a7
 8001cb8:	8522                	mv	a0,s0
 8001cba:	6165                	addi	sp,sp,112
 8001cbc:	5ec0206f          	j	80042a8 <__riscv_restore_4>
 8001cc0:	4401                	li	s0,0
 8001cc2:	8522                	mv	a0,s0
 8001cc4:	6165                	addi	sp,sp,112
 8001cc6:	5e20206f          	j	80042a8 <__riscv_restore_4>
 8001cca:	579c                	lw	a5,40(a5)
 8001ccc:	0034                	addi	a3,sp,8
 8001cce:	864e                	mv	a2,s3
 8001cd0:	4589                	li	a1,2
 8001cd2:	8526                	mv	a0,s1
 8001cd4:	9782                	jalr	a5
 8001cd6:	36092783          	lw	a5,864(s2)
 8001cda:	e931                	bnez	a0,8001d2e <image_x_validate+0xe0>
 8001cdc:	43dc                	lw	a5,4(a5)
 8001cde:	080015b7          	lui	a1,0x8001
 8001ce2:	42058593          	addi	a1,a1,1056 # 8001420 <_sicode+0x154>
 8001ce6:	4505                	li	a0,1
 8001ce8:	9782                	jalr	a5
 8001cea:	36092783          	lw	a5,864(s2)
 8001cee:	bf59                	j	8001c84 <image_x_validate+0x36>
 8001cf0:	53dc                	lw	a5,36(a5)
 8001cf2:	0034                	addi	a3,sp,8
 8001cf4:	864e                	mv	a2,s3
 8001cf6:	4589                	li	a1,2
 8001cf8:	8526                	mv	a0,s1
 8001cfa:	9782                	jalr	a5
 8001cfc:	36092783          	lw	a5,864(s2)
 8001d00:	e129                	bnez	a0,8001d42 <image_x_validate+0xf4>
 8001d02:	43dc                	lw	a5,4(a5)
 8001d04:	080015b7          	lui	a1,0x8001
 8001d08:	48058593          	addi	a1,a1,1152 # 8001480 <_sicode+0x1b4>
 8001d0c:	4505                	li	a0,1
 8001d0e:	9782                	jalr	a5
 8001d10:	36092783          	lw	a5,864(s2)
 8001d14:	bf85                	j	8001c84 <image_x_validate+0x36>
 8001d16:	36092783          	lw	a5,864(s2)
 8001d1a:	080015b7          	lui	a1,0x8001
 8001d1e:	862a                	mv	a2,a0
 8001d20:	43dc                	lw	a5,4(a5)
 8001d22:	49c58593          	addi	a1,a1,1180 # 800149c <_sicode+0x1d0>
 8001d26:	4509                	li	a0,2
 8001d28:	9782                	jalr	a5
 8001d2a:	546d                	li	s0,-5
 8001d2c:	bf59                	j	8001cc2 <image_x_validate+0x74>
 8001d2e:	43dc                	lw	a5,4(a5)
 8001d30:	080015b7          	lui	a1,0x8001
 8001d34:	862a                	mv	a2,a0
 8001d36:	3e858593          	addi	a1,a1,1000 # 80013e8 <_sicode+0x11c>
 8001d3a:	4509                	li	a0,2
 8001d3c:	9782                	jalr	a5
 8001d3e:	5475                	li	s0,-3
 8001d40:	b749                	j	8001cc2 <image_x_validate+0x74>
 8001d42:	43dc                	lw	a5,4(a5)
 8001d44:	080015b7          	lui	a1,0x8001
 8001d48:	862a                	mv	a2,a0
 8001d4a:	44c58593          	addi	a1,a1,1100 # 800144c <_sicode+0x180>
 8001d4e:	4509                	li	a0,2
 8001d50:	9782                	jalr	a5
 8001d52:	5471                	li	s0,-4
 8001d54:	b7bd                	j	8001cc2 <image_x_validate+0x74>

08001d56 <eclic_global_interrupt_enable>:
 8001d56:	47a1                	li	a5,8
 8001d58:	3007a073          	csrs	mstatus,a5
 8001d5c:	8082                	ret

08001d5e <eclic_level_threshold_set>:
 8001d5e:	d20007b7          	lui	a5,0xd2000
 8001d62:	00a785a3          	sb	a0,11(a5) # d200000b <_sp+0xb1ffad0b>
 8001d66:	8082                	ret

08001d68 <eclic_priority_group_set>:
 8001d68:	d20007b7          	lui	a5,0xd2000
 8001d6c:	0007c703          	lbu	a4,0(a5) # d2000000 <_sp+0xb1ffad00>
 8001d70:	0506                	slli	a0,a0,0x1
 8001d72:	8979                	andi	a0,a0,30
 8001d74:	0e177713          	andi	a4,a4,225
 8001d78:	00e78023          	sb	a4,0(a5)
 8001d7c:	0007c703          	lbu	a4,0(a5)
 8001d80:	0ff77713          	zext.b	a4,a4
 8001d84:	8d59                	or	a0,a0,a4
 8001d86:	00a78023          	sb	a0,0(a5)
 8001d8a:	8082                	ret

08001d8c <fmc_unlock>:
 8001d8c:	40022737          	lui	a4,0x40022
 8001d90:	4b1c                	lw	a5,16(a4)
 8001d92:	0807f793          	andi	a5,a5,128
 8001d96:	cb99                	beqz	a5,8001dac <fmc_unlock+0x20>
 8001d98:	456707b7          	lui	a5,0x45670
 8001d9c:	12378793          	addi	a5,a5,291 # 45670123 <_sp+0x2566ae23>
 8001da0:	c35c                	sw	a5,4(a4)
 8001da2:	cdef97b7          	lui	a5,0xcdef9
 8001da6:	9ab78793          	addi	a5,a5,-1621 # cdef89ab <_sp+0xadef36ab>
 8001daa:	c35c                	sw	a5,4(a4)
 8001dac:	8082                	ret

08001dae <fmc_lock>:
 8001dae:	40022737          	lui	a4,0x40022
 8001db2:	4b1c                	lw	a5,16(a4)
 8001db4:	0807e793          	ori	a5,a5,128
 8001db8:	cb1c                	sw	a5,16(a4)
 8001dba:	8082                	ret

08001dbc <fmc_page_erase>:
 8001dbc:	85aa                	mv	a1,a0
 8001dbe:	01000737          	lui	a4,0x1000
 8001dc2:	400226b7          	lui	a3,0x40022
 8001dc6:	46dc                	lw	a5,12(a3)
 8001dc8:	177d                	addi	a4,a4,-1
 8001dca:	00c68613          	addi	a2,a3,12 # 4002200c <_sp+0x2001cd0c>
 8001dce:	8b85                	andi	a5,a5,1
 8001dd0:	e3a1                	bnez	a5,8001e10 <fmc_page_erase+0x54>
 8001dd2:	421c                	lw	a5,0(a2)
 8001dd4:	4509                	li	a0,2
 8001dd6:	8bc1                	andi	a5,a5,16
 8001dd8:	e7b9                	bnez	a5,8001e26 <fmc_page_erase+0x6a>
 8001dda:	4a9c                	lw	a5,16(a3)
 8001ddc:	01000737          	lui	a4,0x1000
 8001de0:	40022637          	lui	a2,0x40022
 8001de4:	0027e793          	ori	a5,a5,2
 8001de8:	ca9c                	sw	a5,16(a3)
 8001dea:	cacc                	sw	a1,20(a3)
 8001dec:	4a9c                	lw	a5,16(a3)
 8001dee:	0407e793          	ori	a5,a5,64
 8001df2:	ca9c                	sw	a5,16(a3)
 8001df4:	465c                	lw	a5,12(a2)
 8001df6:	177d                	addi	a4,a4,-1
 8001df8:	8b85                	andi	a5,a5,1
 8001dfa:	ef91                	bnez	a5,8001e16 <fmc_page_erase+0x5a>
 8001dfc:	4648                	lw	a0,12(a2)
 8001dfe:	8941                	andi	a0,a0,16
 8001e00:	c111                	beqz	a0,8001e04 <fmc_page_erase+0x48>
 8001e02:	4509                	li	a0,2
 8001e04:	40022737          	lui	a4,0x40022
 8001e08:	4b1c                	lw	a5,16(a4)
 8001e0a:	9bf5                	andi	a5,a5,-3
 8001e0c:	cb1c                	sw	a5,16(a4)
 8001e0e:	8082                	ret
 8001e10:	fb5d                	bnez	a4,8001dc6 <fmc_page_erase+0xa>
 8001e12:	450d                	li	a0,3
 8001e14:	8082                	ret
 8001e16:	ff79                	bnez	a4,8001df4 <fmc_page_erase+0x38>
 8001e18:	40022737          	lui	a4,0x40022
 8001e1c:	4b1c                	lw	a5,16(a4)
 8001e1e:	450d                	li	a0,3
 8001e20:	9bf5                	andi	a5,a5,-3
 8001e22:	cb1c                	sw	a5,16(a4)
 8001e24:	8082                	ret
 8001e26:	8082                	ret

08001e28 <fmc_mass_erase>:
 8001e28:	01000737          	lui	a4,0x1000
 8001e2c:	400226b7          	lui	a3,0x40022
 8001e30:	46dc                	lw	a5,12(a3)
 8001e32:	177d                	addi	a4,a4,-1
 8001e34:	00c68613          	addi	a2,a3,12 # 4002200c <_sp+0x2001cd0c>
 8001e38:	8b85                	andi	a5,a5,1
 8001e3a:	ef9d                	bnez	a5,8001e78 <fmc_mass_erase+0x50>
 8001e3c:	421c                	lw	a5,0(a2)
 8001e3e:	4509                	li	a0,2
 8001e40:	8bc1                	andi	a5,a5,16
 8001e42:	e7b1                	bnez	a5,8001e8e <fmc_mass_erase+0x66>
 8001e44:	4a9c                	lw	a5,16(a3)
 8001e46:	01000737          	lui	a4,0x1000
 8001e4a:	40022637          	lui	a2,0x40022
 8001e4e:	0047e793          	ori	a5,a5,4
 8001e52:	ca9c                	sw	a5,16(a3)
 8001e54:	4a9c                	lw	a5,16(a3)
 8001e56:	0407e793          	ori	a5,a5,64
 8001e5a:	ca9c                	sw	a5,16(a3)
 8001e5c:	465c                	lw	a5,12(a2)
 8001e5e:	177d                	addi	a4,a4,-1
 8001e60:	8b85                	andi	a5,a5,1
 8001e62:	ef91                	bnez	a5,8001e7e <fmc_mass_erase+0x56>
 8001e64:	4648                	lw	a0,12(a2)
 8001e66:	8941                	andi	a0,a0,16
 8001e68:	c111                	beqz	a0,8001e6c <fmc_mass_erase+0x44>
 8001e6a:	4509                	li	a0,2
 8001e6c:	40022737          	lui	a4,0x40022
 8001e70:	4b1c                	lw	a5,16(a4)
 8001e72:	9bed                	andi	a5,a5,-5
 8001e74:	cb1c                	sw	a5,16(a4)
 8001e76:	8082                	ret
 8001e78:	ff45                	bnez	a4,8001e30 <fmc_mass_erase+0x8>
 8001e7a:	450d                	li	a0,3
 8001e7c:	8082                	ret
 8001e7e:	ff79                	bnez	a4,8001e5c <fmc_mass_erase+0x34>
 8001e80:	40022737          	lui	a4,0x40022
 8001e84:	4b1c                	lw	a5,16(a4)
 8001e86:	450d                	li	a0,3
 8001e88:	9bed                	andi	a5,a5,-5
 8001e8a:	cb1c                	sw	a5,16(a4)
 8001e8c:	8082                	ret
 8001e8e:	8082                	ret

08001e90 <fmc_word_program>:
 8001e90:	882a                	mv	a6,a0
 8001e92:	01000737          	lui	a4,0x1000
 8001e96:	400226b7          	lui	a3,0x40022
 8001e9a:	46dc                	lw	a5,12(a3)
 8001e9c:	177d                	addi	a4,a4,-1
 8001e9e:	00c68613          	addi	a2,a3,12 # 4002200c <_sp+0x2001cd0c>
 8001ea2:	8b85                	andi	a5,a5,1
 8001ea4:	ef8d                	bnez	a5,8001ede <fmc_word_program+0x4e>
 8001ea6:	421c                	lw	a5,0(a2)
 8001ea8:	4509                	li	a0,2
 8001eaa:	8bc1                	andi	a5,a5,16
 8001eac:	e7a1                	bnez	a5,8001ef4 <fmc_word_program+0x64>
 8001eae:	4a9c                	lw	a5,16(a3)
 8001eb0:	01000737          	lui	a4,0x1000
 8001eb4:	40022637          	lui	a2,0x40022
 8001eb8:	0017e793          	ori	a5,a5,1
 8001ebc:	ca9c                	sw	a5,16(a3)
 8001ebe:	00b82023          	sw	a1,0(a6) # fffe9000 <_sp+0xdffe3d00>
 8001ec2:	465c                	lw	a5,12(a2)
 8001ec4:	177d                	addi	a4,a4,-1
 8001ec6:	8b85                	andi	a5,a5,1
 8001ec8:	ef91                	bnez	a5,8001ee4 <fmc_word_program+0x54>
 8001eca:	4648                	lw	a0,12(a2)
 8001ecc:	8941                	andi	a0,a0,16
 8001ece:	c111                	beqz	a0,8001ed2 <fmc_word_program+0x42>
 8001ed0:	4509                	li	a0,2
 8001ed2:	40022737          	lui	a4,0x40022
 8001ed6:	4b1c                	lw	a5,16(a4)
 8001ed8:	9bf9                	andi	a5,a5,-2
 8001eda:	cb1c                	sw	a5,16(a4)
 8001edc:	8082                	ret
 8001ede:	ff55                	bnez	a4,8001e9a <fmc_word_program+0xa>
 8001ee0:	450d                	li	a0,3
 8001ee2:	8082                	ret
 8001ee4:	ff79                	bnez	a4,8001ec2 <fmc_word_program+0x32>
 8001ee6:	40022737          	lui	a4,0x40022
 8001eea:	4b1c                	lw	a5,16(a4)
 8001eec:	450d                	li	a0,3
 8001eee:	9bf9                	andi	a5,a5,-2
 8001ef0:	cb1c                	sw	a5,16(a4)
 8001ef2:	8082                	ret
 8001ef4:	8082                	ret

08001ef6 <fmc_continuous_program>:
 8001ef6:	88aa                	mv	a7,a0
 8001ef8:	01000737          	lui	a4,0x1000
 8001efc:	400226b7          	lui	a3,0x40022
 8001f00:	46dc                	lw	a5,12(a3)
 8001f02:	177d                	addi	a4,a4,-1
 8001f04:	00c68813          	addi	a6,a3,12 # 4002200c <_sp+0x2001cd0c>
 8001f08:	8b85                	andi	a5,a5,1
 8001f0a:	ef9d                	bnez	a5,8001f48 <fmc_continuous_program+0x52>
 8001f0c:	00082503          	lw	a0,0(a6)
 8001f10:	8941                	andi	a0,a0,16
 8001f12:	ed15                	bnez	a0,8001f4e <fmc_continuous_program+0x58>
 8001f14:	4a98                	lw	a4,16(a3)
 8001f16:	ffc67793          	andi	a5,a2,-4
 8001f1a:	8209                	srli	a2,a2,0x2
 8001f1c:	00176713          	ori	a4,a4,1
 8001f20:	ca98                	sw	a4,16(a3)
 8001f22:	011786b3          	add	a3,a5,a7
 8001f26:	87c6                	mv	a5,a7
 8001f28:	ca11                	beqz	a2,8001f3c <fmc_continuous_program+0x46>
 8001f2a:	41178733          	sub	a4,a5,a7
 8001f2e:	972e                	add	a4,a4,a1
 8001f30:	4318                	lw	a4,0(a4)
 8001f32:	0791                	addi	a5,a5,4
 8001f34:	fee7ae23          	sw	a4,-4(a5)
 8001f38:	fef699e3          	bne	a3,a5,8001f2a <fmc_continuous_program+0x34>
 8001f3c:	40022737          	lui	a4,0x40022
 8001f40:	4b1c                	lw	a5,16(a4)
 8001f42:	9bf9                	andi	a5,a5,-2
 8001f44:	cb1c                	sw	a5,16(a4)
 8001f46:	8082                	ret
 8001f48:	ff45                	bnez	a4,8001f00 <fmc_continuous_program+0xa>
 8001f4a:	450d                	li	a0,3
 8001f4c:	8082                	ret
 8001f4e:	4509                	li	a0,2
 8001f50:	8082                	ret

08001f52 <ob_unlock>:
 8001f52:	40022737          	lui	a4,0x40022
 8001f56:	4b1c                	lw	a5,16(a4)
 8001f58:	2007f793          	andi	a5,a5,512
 8001f5c:	eb99                	bnez	a5,8001f72 <ob_unlock+0x20>
 8001f5e:	456707b7          	lui	a5,0x45670
 8001f62:	12378793          	addi	a5,a5,291 # 45670123 <_sp+0x2566ae23>
 8001f66:	c71c                	sw	a5,8(a4)
 8001f68:	cdef97b7          	lui	a5,0xcdef9
 8001f6c:	9ab78793          	addi	a5,a5,-1621 # cdef89ab <_sp+0xadef36ab>
 8001f70:	c71c                	sw	a5,8(a4)
 8001f72:	8082                	ret

08001f74 <ob_lock>:
 8001f74:	40022737          	lui	a4,0x40022
 8001f78:	4b1c                	lw	a5,16(a4)
 8001f7a:	dff7f793          	andi	a5,a5,-513
 8001f7e:	cb1c                	sw	a5,16(a4)
 8001f80:	8082                	ret

08001f82 <fmc_no_rtdec_config>:
 8001f82:	4789                	li	a5,2
 8001f84:	04f60d63          	beq	a2,a5,8001fde <fmc_no_rtdec_config+0x5c>
 8001f88:	00c7ef63          	bltu	a5,a2,8001fa6 <fmc_no_rtdec_config+0x24>
 8001f8c:	ce0d                	beqz	a2,8001fc6 <fmc_no_rtdec_config+0x44>
 8001f8e:	400227b7          	lui	a5,0x40022
 8001f92:	0607aa23          	sw	zero,116(a5) # 40022074 <_sp+0x2001cd74>
 8001f96:	5bf8                	lw	a4,116(a5)
 8001f98:	05c2                	slli	a1,a1,0x10
 8001f9a:	8d59                	or	a0,a0,a4
 8001f9c:	dbe8                	sw	a0,116(a5)
 8001f9e:	5bf8                	lw	a4,116(a5)
 8001fa0:	8dd9                	or	a1,a1,a4
 8001fa2:	dbec                	sw	a1,116(a5)
 8001fa4:	8082                	ret
 8001fa6:	478d                	li	a5,3
 8001fa8:	00f61e63          	bne	a2,a5,8001fc4 <fmc_no_rtdec_config+0x42>
 8001fac:	400227b7          	lui	a5,0x40022
 8001fb0:	0607ae23          	sw	zero,124(a5) # 4002207c <_sp+0x2001cd7c>
 8001fb4:	5ff8                	lw	a4,124(a5)
 8001fb6:	05c2                	slli	a1,a1,0x10
 8001fb8:	8d59                	or	a0,a0,a4
 8001fba:	dfe8                	sw	a0,124(a5)
 8001fbc:	5ff8                	lw	a4,124(a5)
 8001fbe:	8dd9                	or	a1,a1,a4
 8001fc0:	dfec                	sw	a1,124(a5)
 8001fc2:	8082                	ret
 8001fc4:	8082                	ret
 8001fc6:	400227b7          	lui	a5,0x40022
 8001fca:	0607a823          	sw	zero,112(a5) # 40022070 <_sp+0x2001cd70>
 8001fce:	5bb8                	lw	a4,112(a5)
 8001fd0:	05c2                	slli	a1,a1,0x10
 8001fd2:	8d59                	or	a0,a0,a4
 8001fd4:	dba8                	sw	a0,112(a5)
 8001fd6:	5bb8                	lw	a4,112(a5)
 8001fd8:	8dd9                	or	a1,a1,a4
 8001fda:	dbac                	sw	a1,112(a5)
 8001fdc:	8082                	ret
 8001fde:	400227b7          	lui	a5,0x40022
 8001fe2:	0607ac23          	sw	zero,120(a5) # 40022078 <_sp+0x2001cd78>
 8001fe6:	5fb8                	lw	a4,120(a5)
 8001fe8:	05c2                	slli	a1,a1,0x10
 8001fea:	8d59                	or	a0,a0,a4
 8001fec:	dfa8                	sw	a0,120(a5)
 8001fee:	5fb8                	lw	a4,120(a5)
 8001ff0:	8dd9                	or	a1,a1,a4
 8001ff2:	dfac                	sw	a1,120(a5)
 8001ff4:	8082                	ret

08001ff6 <fmc_offset_region_config>:
 8001ff6:	400227b7          	lui	a5,0x40022
 8001ffa:	0807a023          	sw	zero,128(a5) # 40022080 <_sp+0x2001cd80>
 8001ffe:	0807a703          	lw	a4,128(a5)
 8002002:	05c2                	slli	a1,a1,0x10
 8002004:	8f49                	or	a4,a4,a0
 8002006:	08e7a023          	sw	a4,128(a5)
 800200a:	0807a703          	lw	a4,128(a5)
 800200e:	8dd9                	or	a1,a1,a4
 8002010:	08b7a023          	sw	a1,128(a5)
 8002014:	8082                	ret

08002016 <fmc_offset_value_config>:
 8002016:	400227b7          	lui	a5,0x40022
 800201a:	0807a223          	sw	zero,132(a5) # 40022084 <_sp+0x2001cd84>
 800201e:	0847a703          	lw	a4,132(a5)
 8002022:	8f49                	or	a4,a4,a0
 8002024:	08e7a223          	sw	a4,132(a5)
 8002028:	8082                	ret

0800202a <fmc_flag_clear>:
 800202a:	400227b7          	lui	a5,0x40022
 800202e:	c7c8                	sw	a0,12(a5)
 8002030:	8082                	ret

08002032 <gpio_deinit>:
 8002032:	25c022ef          	jal	t0,800428e <__riscv_save_0>
 8002036:	40020737          	lui	a4,0x40020
 800203a:	40070793          	addi	a5,a4,1024 # 40020400 <_sp+0x2001b100>
 800203e:	00f50c63          	beq	a0,a5,8002056 <gpio_deinit+0x24>
 8002042:	400217b7          	lui	a5,0x40021
 8002046:	80078793          	addi	a5,a5,-2048 # 40020800 <_sp+0x2001b500>
 800204a:	02f50663          	beq	a0,a5,8002076 <gpio_deinit+0x44>
 800204e:	00e50c63          	beq	a0,a4,8002066 <gpio_deinit+0x34>
 8002052:	2600206f          	j	80042b2 <__riscv_restore_0>
 8002056:	40100513          	li	a0,1025
 800205a:	2289                	jal	800219c <rcu_periph_reset_enable>
 800205c:	40100513          	li	a0,1025
 8002060:	2a91                	jal	80021b4 <rcu_periph_reset_disable>
 8002062:	2500206f          	j	80042b2 <__riscv_restore_0>
 8002066:	40000513          	li	a0,1024
 800206a:	2a0d                	jal	800219c <rcu_periph_reset_enable>
 800206c:	40000513          	li	a0,1024
 8002070:	2291                	jal	80021b4 <rcu_periph_reset_disable>
 8002072:	2400206f          	j	80042b2 <__riscv_restore_0>
 8002076:	40200513          	li	a0,1026
 800207a:	220d                	jal	800219c <rcu_periph_reset_enable>
 800207c:	40200513          	li	a0,1026
 8002080:	2a15                	jal	80021b4 <rcu_periph_reset_disable>
 8002082:	2300206f          	j	80042b2 <__riscv_restore_0>

08002086 <gpio_mode_set>:
 8002086:	00052e03          	lw	t3,0(a0) # 40011000 <_sp+0x2000bd00>
 800208a:	00c52303          	lw	t1,12(a0)
 800208e:	4801                	li	a6,0
 8002090:	428d                	li	t0,3
 8002092:	4fc1                	li	t6,16
 8002094:	00181713          	slli	a4,a6,0x1
 8002098:	00e297b3          	sll	a5,t0,a4
 800209c:	fff7c793          	not	a5,a5
 80020a0:	290018b3          	bset	a7,zero,a6
 80020a4:	00d8f8b3          	and	a7,a7,a3
 80020a8:	01c7feb3          	and	t4,a5,t3
 80020ac:	00e59f33          	sll	t5,a1,a4
 80020b0:	0805                	addi	a6,a6,1
 80020b2:	0067f7b3          	and	a5,a5,t1
 80020b6:	00e61733          	sll	a4,a2,a4
 80020ba:	00088663          	beqz	a7,80020c6 <gpio_mode_set+0x40>
 80020be:	01df6e33          	or	t3,t5,t4
 80020c2:	00f76333          	or	t1,a4,a5
 80020c6:	fdf817e3          	bne	a6,t6,8002094 <gpio_mode_set+0xe>
 80020ca:	01c52023          	sw	t3,0(a0)
 80020ce:	00652623          	sw	t1,12(a0)
 80020d2:	8082                	ret

080020d4 <gpio_output_options_set>:
 80020d4:	4785                	li	a5,1
 80020d6:	02f58f63          	beq	a1,a5,8002114 <gpio_output_options_set+0x40>
 80020da:	415c                	lw	a5,4(a0)
 80020dc:	40d7f7b3          	andn	a5,a5,a3
 80020e0:	c15c                	sw	a5,4(a0)
 80020e2:	00852803          	lw	a6,8(a0)
 80020e6:	4781                	li	a5,0
 80020e8:	4e0d                	li	t3,3
 80020ea:	4341                	li	t1,16
 80020ec:	00179713          	slli	a4,a5,0x1
 80020f0:	28f015b3          	bset	a1,zero,a5
 80020f4:	8df5                	and	a1,a1,a3
 80020f6:	00ee18b3          	sll	a7,t3,a4
 80020fa:	0785                	addi	a5,a5,1
 80020fc:	00e61733          	sll	a4,a2,a4
 8002100:	c589                	beqz	a1,800210a <gpio_output_options_set+0x36>
 8002102:	41187833          	andn	a6,a6,a7
 8002106:	01076833          	or	a6,a4,a6
 800210a:	fe6791e3          	bne	a5,t1,80020ec <gpio_output_options_set+0x18>
 800210e:	01052423          	sw	a6,8(a0)
 8002112:	8082                	ret
 8002114:	415c                	lw	a5,4(a0)
 8002116:	8fd5                	or	a5,a5,a3
 8002118:	c15c                	sw	a5,4(a0)
 800211a:	b7e1                	j	80020e2 <gpio_output_options_set+0xe>

0800211c <gpio_bit_set>:
 800211c:	cd0c                	sw	a1,24(a0)
 800211e:	8082                	ret

08002120 <gpio_bit_reset>:
 8002120:	d50c                	sw	a1,40(a0)
 8002122:	8082                	ret

08002124 <gpio_af_set>:
 8002124:	02052883          	lw	a7,32(a0)
 8002128:	02452803          	lw	a6,36(a0)
 800212c:	4781                	li	a5,0
 800212e:	4ebd                	li	t4,15
 8002130:	4e21                	li	t3,8
 8002132:	00279713          	slli	a4,a5,0x2
 8002136:	28f016b3          	bset	a3,zero,a5
 800213a:	8ef1                	and	a3,a3,a2
 800213c:	00ee9333          	sll	t1,t4,a4
 8002140:	0785                	addi	a5,a5,1
 8002142:	00e59733          	sll	a4,a1,a4
 8002146:	c689                	beqz	a3,8002150 <gpio_af_set+0x2c>
 8002148:	4068f8b3          	andn	a7,a7,t1
 800214c:	011768b3          	or	a7,a4,a7
 8002150:	ffc791e3          	bne	a5,t3,8002132 <gpio_af_set+0xe>
 8002154:	4701                	li	a4,0
 8002156:	4f3d                	li	t5,15
 8002158:	4ec1                	li	t4,16
 800215a:	28f016b3          	bset	a3,zero,a5
 800215e:	8ef1                	and	a3,a3,a2
 8002160:	0785                	addi	a5,a5,1
 8002162:	00ef1e33          	sll	t3,t5,a4
 8002166:	00e59333          	sll	t1,a1,a4
 800216a:	c689                	beqz	a3,8002174 <gpio_af_set+0x50>
 800216c:	41c87833          	andn	a6,a6,t3
 8002170:	01036833          	or	a6,t1,a6
 8002174:	0711                	addi	a4,a4,4
 8002176:	ffd792e3          	bne	a5,t4,800215a <gpio_af_set+0x36>
 800217a:	03152023          	sw	a7,32(a0)
 800217e:	03052223          	sw	a6,36(a0)
 8002182:	8082                	ret

08002184 <rcu_periph_clock_enable>:
 8002184:	40024737          	lui	a4,0x40024
 8002188:	00655793          	srli	a5,a0,0x6
 800218c:	80070713          	addi	a4,a4,-2048 # 40023800 <_sp+0x2001e500>
 8002190:	97ba                	add	a5,a5,a4
 8002192:	4398                	lw	a4,0(a5)
 8002194:	28a71533          	bset	a0,a4,a0
 8002198:	c388                	sw	a0,0(a5)
 800219a:	8082                	ret

0800219c <rcu_periph_reset_enable>:
 800219c:	40024737          	lui	a4,0x40024
 80021a0:	00655793          	srli	a5,a0,0x6
 80021a4:	80070713          	addi	a4,a4,-2048 # 40023800 <_sp+0x2001e500>
 80021a8:	97ba                	add	a5,a5,a4
 80021aa:	4398                	lw	a4,0(a5)
 80021ac:	28a71533          	bset	a0,a4,a0
 80021b0:	c388                	sw	a0,0(a5)
 80021b2:	8082                	ret

080021b4 <rcu_periph_reset_disable>:
 80021b4:	40024737          	lui	a4,0x40024
 80021b8:	00655793          	srli	a5,a0,0x6
 80021bc:	80070713          	addi	a4,a4,-2048 # 40023800 <_sp+0x2001e500>
 80021c0:	97ba                	add	a5,a5,a4
 80021c2:	4398                	lw	a4,0(a5)
 80021c4:	28a01533          	bset	a0,zero,a0
 80021c8:	40a77533          	andn	a0,a4,a0
 80021cc:	c388                	sw	a0,0(a5)
 80021ce:	8082                	ret

080021d0 <rcu_clock_freq_get>:
 80021d0:	080017b7          	lui	a5,0x8001
 80021d4:	51c78793          	addi	a5,a5,1308 # 800151c <_sicode+0x250>
 80021d8:	43d0                	lw	a2,4(a5)
 80021da:	4794                	lw	a3,8(a5)
 80021dc:	47d8                	lw	a4,12(a5)
 80021de:	438c                	lw	a1,0(a5)
 80021e0:	040307b7          	lui	a5,0x4030
 80021e4:	7179                	addi	sp,sp,-48
 80021e6:	20178793          	addi	a5,a5,513 # 4030201 <__stack_size+0x402f201>
 80021ea:	c23e                	sw	a5,4(sp)
 80021ec:	c63e                	sw	a5,12(sp)
 80021ee:	0b71b7b7          	lui	a5,0xb71b
 80021f2:	d03e                	sw	a5,32(sp)
 80021f4:	0e4e27b7          	lui	a5,0xe4e2
 80021f8:	c0078793          	addi	a5,a5,-1024 # e4e1c00 <mbedtls_mpi_mul_mpi_sw+0x2573420>
 80021fc:	d23e                	sw	a5,36(sp)
 80021fe:	1312d7b7          	lui	a5,0x1312d
 8002202:	d43e                	sw	a5,40(sp)
 8002204:	1c9c47b7          	lui	a5,0x1c9c4
 8002208:	80078793          	addi	a5,a5,-2048 # 1c9c3800 <mbedtls_mpi_mul_mpi_sw+0x10a55020>
 800220c:	ca32                	sw	a2,20(sp)
 800220e:	cc36                	sw	a3,24(sp)
 8002210:	ce3a                	sw	a4,28(sp)
 8002212:	c82e                	sw	a1,16(sp)
 8002214:	c002                	sw	zero,0(sp)
 8002216:	c402                	sw	zero,8(sp)
 8002218:	d63e                	sw	a5,44(sp)
 800221a:	40024737          	lui	a4,0x40024
 800221e:	80872783          	lw	a5,-2040(a4) # 40023808 <_sp+0x2001e508>
 8002222:	4685                	li	a3,1
 8002224:	862a                	mv	a2,a0
 8002226:	8389                	srli	a5,a5,0x2
 8002228:	8b8d                	andi	a5,a5,3
 800222a:	08d78463          	beq	a5,a3,80022b2 <rcu_clock_freq_get+0xe2>
 800222e:	4689                	li	a3,2
 8002230:	06d79c63          	bne	a5,a3,80022a8 <rcu_clock_freq_get+0xd8>
 8002234:	88472783          	lw	a5,-1916(a4)
 8002238:	1814                	addi	a3,sp,48
 800223a:	88472703          	lw	a4,-1916(a4)
 800223e:	83d9                	srli	a5,a5,0x16
 8002240:	8bb1                	andi	a5,a5,12
 8002242:	97b6                	add	a5,a5,a3
 8002244:	ff07a583          	lw	a1,-16(a5)
 8002248:	01a75793          	srli	a5,a4,0x1a
 800224c:	0785                	addi	a5,a5,1
 800224e:	02f5d5b3          	divu	a1,a1,a5
 8002252:	400247b7          	lui	a5,0x40024
 8002256:	8087a683          	lw	a3,-2040(a5) # 40023808 <_sp+0x2001e508>
 800225a:	8087a703          	lw	a4,-2040(a5)
 800225e:	1808                	addi	a0,sp,48
 8002260:	8291                	srli	a3,a3,0x4
 8002262:	8abd                	andi	a3,a3,15
 8002264:	96aa                	add	a3,a3,a0
 8002266:	8087a783          	lw	a5,-2040(a5)
 800226a:	8329                	srli	a4,a4,0xa
 800226c:	fe06c683          	lbu	a3,-32(a3)
 8002270:	8b1d                	andi	a4,a4,7
 8002272:	972a                	add	a4,a4,a0
 8002274:	fd074503          	lbu	a0,-48(a4)
 8002278:	83b5                	srli	a5,a5,0xd
 800227a:	00d5d733          	srl	a4,a1,a3
 800227e:	8b9d                	andi	a5,a5,7
 8002280:	1814                	addi	a3,sp,48
 8002282:	97b6                	add	a5,a5,a3
 8002284:	4695                	li	a3,5
 8002286:	fd87c803          	lbu	a6,-40(a5)
 800228a:	00a75533          	srl	a0,a4,a0
 800228e:	0ac6ea63          	bltu	a3,a2,8002342 <rcu_clock_freq_get+0x172>
 8002292:	080017b7          	lui	a5,0x8001
 8002296:	50478793          	addi	a5,a5,1284 # 8001504 <_sicode+0x238>
 800229a:	20f64633          	sh2add	a2,a2,a5
 800229e:	421c                	lw	a5,0(a2)
 80022a0:	8782                	jr	a5
 80022a2:	852e                	mv	a0,a1
 80022a4:	6145                	addi	sp,sp,48
 80022a6:	8082                	ret
 80022a8:	00f425b7          	lui	a1,0xf42
 80022ac:	40058593          	addi	a1,a1,1024 # f42400 <__stack_size+0xf41400>
 80022b0:	b74d                	j	8002252 <rcu_clock_freq_get+0x82>
 80022b2:	026265b7          	lui	a1,0x2626
 80022b6:	a0058593          	addi	a1,a1,-1536 # 2625a00 <__stack_size+0x2624a00>
 80022ba:	bf61                	j	8002252 <rcu_clock_freq_get+0x82>
 80022bc:	853a                	mv	a0,a4
 80022be:	6145                	addi	sp,sp,48
 80022c0:	8082                	ret
 80022c2:	01075533          	srl	a0,a4,a6
 80022c6:	6145                	addi	sp,sp,48
 80022c8:	8082                	ret
 80022ca:	400246b7          	lui	a3,0x40024
 80022ce:	88c6a783          	lw	a5,-1908(a3) # 4002388c <_sp+0x2001e58c>
 80022d2:	c0000737          	lui	a4,0xc0000
 80022d6:	8ff9                	and	a5,a5,a4
 80022d8:	d7f1                	beqz	a5,80022a4 <rcu_clock_freq_get+0xd4>
 80022da:	88c6a783          	lw	a5,-1908(a3)
 80022de:	40000637          	lui	a2,0x40000
 80022e2:	852e                	mv	a0,a1
 80022e4:	8ff9                	and	a5,a5,a4
 80022e6:	fac78fe3          	beq	a5,a2,80022a4 <rcu_clock_freq_get+0xd4>
 80022ea:	88c6a783          	lw	a5,-1908(a3)
 80022ee:	80000637          	lui	a2,0x80000
 80022f2:	6521                	lui	a0,0x8
 80022f4:	8ff9                	and	a5,a5,a4
 80022f6:	fac787e3          	beq	a5,a2,80022a4 <rcu_clock_freq_get+0xd4>
 80022fa:	88c6a783          	lw	a5,-1908(a3)
 80022fe:	4501                	li	a0,0
 8002300:	8ff9                	and	a5,a5,a4
 8002302:	fae791e3          	bne	a5,a4,80022a4 <rcu_clock_freq_get+0xd4>
 8002306:	a80d                	j	8002338 <rcu_clock_freq_get+0x168>
 8002308:	400246b7          	lui	a3,0x40024
 800230c:	88c6a783          	lw	a5,-1908(a3) # 4002388c <_sp+0x2001e58c>
 8002310:	0c000737          	lui	a4,0xc000
 8002314:	8ff9                	and	a5,a5,a4
 8002316:	d7d9                	beqz	a5,80022a4 <rcu_clock_freq_get+0xd4>
 8002318:	88c6a783          	lw	a5,-1908(a3)
 800231c:	04000637          	lui	a2,0x4000
 8002320:	852e                	mv	a0,a1
 8002322:	8ff9                	and	a5,a5,a4
 8002324:	f8c780e3          	beq	a5,a2,80022a4 <rcu_clock_freq_get+0xd4>
 8002328:	88c6a783          	lw	a5,-1908(a3)
 800232c:	080006b7          	lui	a3,0x8000
 8002330:	4501                	li	a0,0
 8002332:	8f7d                	and	a4,a4,a5
 8002334:	f6d718e3          	bne	a4,a3,80022a4 <rcu_clock_freq_get+0xd4>
 8002338:	00f42537          	lui	a0,0xf42
 800233c:	40050513          	addi	a0,a0,1024 # f42400 <__stack_size+0xf41400>
 8002340:	b795                	j	80022a4 <rcu_clock_freq_get+0xd4>
 8002342:	4501                	li	a0,0
 8002344:	b785                	j	80022a4 <rcu_clock_freq_get+0xd4>

08002346 <usart_deinit>:
 8002346:	749012ef          	jal	t0,800428e <__riscv_save_0>
 800234a:	400057b7          	lui	a5,0x40005
 800234e:	80078793          	addi	a5,a5,-2048 # 40004800 <_sp+0x1ffff500>
 8002352:	00f50e63          	beq	a0,a5,800236e <usart_deinit+0x28>
 8002356:	400117b7          	lui	a5,0x40011
 800235a:	02f50c63          	beq	a0,a5,8002392 <usart_deinit+0x4c>
 800235e:	400047b7          	lui	a5,0x40004
 8002362:	40078793          	addi	a5,a5,1024 # 40004400 <_sp+0x1ffff100>
 8002366:	00f50d63          	beq	a0,a5,8002380 <usart_deinit+0x3a>
 800236a:	7490106f          	j	80042b2 <__riscv_restore_0>
 800236e:	6405                	lui	s0,0x1
 8002370:	81240513          	addi	a0,s0,-2030 # 812 <__stack_size-0x7ee>
 8002374:	3525                	jal	800219c <rcu_periph_reset_enable>
 8002376:	81240513          	addi	a0,s0,-2030
 800237a:	3d2d                	jal	80021b4 <rcu_periph_reset_disable>
 800237c:	7370106f          	j	80042b2 <__riscv_restore_0>
 8002380:	6405                	lui	s0,0x1
 8002382:	81140513          	addi	a0,s0,-2031 # 811 <__stack_size-0x7ef>
 8002386:	3d19                	jal	800219c <rcu_periph_reset_enable>
 8002388:	81140513          	addi	a0,s0,-2031
 800238c:	3525                	jal	80021b4 <rcu_periph_reset_disable>
 800238e:	7250106f          	j	80042b2 <__riscv_restore_0>
 8002392:	6405                	lui	s0,0x1
 8002394:	90440513          	addi	a0,s0,-1788 # 904 <__stack_size-0x6fc>
 8002398:	3511                	jal	800219c <rcu_periph_reset_enable>
 800239a:	90440513          	addi	a0,s0,-1788
 800239e:	3d19                	jal	80021b4 <rcu_periph_reset_disable>
 80023a0:	7130106f          	j	80042b2 <__riscv_restore_0>

080023a4 <usart_baudrate_set>:
 80023a4:	6eb012ef          	jal	t0,800428e <__riscv_save_0>
 80023a8:	400057b7          	lui	a5,0x40005
 80023ac:	80078793          	addi	a5,a5,-2048 # 40004800 <_sp+0x1ffff500>
 80023b0:	842a                	mv	s0,a0
 80023b2:	84ae                	mv	s1,a1
 80023b4:	04f50a63          	beq	a0,a5,8002408 <usart_baudrate_set+0x64>
 80023b8:	400117b7          	lui	a5,0x40011
 80023bc:	04f50c63          	beq	a0,a5,8002414 <usart_baudrate_set+0x70>
 80023c0:	400047b7          	lui	a5,0x40004
 80023c4:	40078793          	addi	a5,a5,1024 # 40004400 <_sp+0x1ffff100>
 80023c8:	4501                	li	a0,0
 80023ca:	04f40263          	beq	s0,a5,800240e <usart_baudrate_set+0x6a>
 80023ce:	4018                	lw	a4,0(s0)
 80023d0:	67a1                	lui	a5,0x8
 80023d2:	0014d593          	srli	a1,s1,0x1
 80023d6:	8f7d                	and	a4,a4,a5
 80023d8:	cf19                	beqz	a4,80023f6 <usart_baudrate_set+0x52>
 80023da:	20b527b3          	sh1add	a5,a0,a1
 80023de:	0297d5b3          	divu	a1,a5,s1
 80023e2:	6541                	lui	a0,0x10
 80023e4:	1541                	addi	a0,a0,-16
 80023e6:	0015d793          	srli	a5,a1,0x1
 80023ea:	8b9d                	andi	a5,a5,7
 80023ec:	8de9                	and	a1,a1,a0
 80023ee:	8ddd                	or	a1,a1,a5
 80023f0:	c44c                	sw	a1,12(s0)
 80023f2:	6c10106f          	j	80042b2 <__riscv_restore_0>
 80023f6:	00b507b3          	add	a5,a0,a1
 80023fa:	0297d5b3          	divu	a1,a5,s1
 80023fe:	0805c5b3          	zext.h	a1,a1
 8002402:	c44c                	sw	a1,12(s0)
 8002404:	6af0106f          	j	80042b2 <__riscv_restore_0>
 8002408:	4511                	li	a0,4
 800240a:	33d9                	jal	80021d0 <rcu_clock_freq_get>
 800240c:	b7c9                	j	80023ce <usart_baudrate_set+0x2a>
 800240e:	4509                	li	a0,2
 8002410:	33c1                	jal	80021d0 <rcu_clock_freq_get>
 8002412:	bf75                	j	80023ce <usart_baudrate_set+0x2a>
 8002414:	450d                	li	a0,3
 8002416:	3b6d                	jal	80021d0 <rcu_clock_freq_get>
 8002418:	bf5d                	j	80023ce <usart_baudrate_set+0x2a>

0800241a <usart_enable>:
 800241a:	411c                	lw	a5,0(a0)
 800241c:	0017e793          	ori	a5,a5,1
 8002420:	c11c                	sw	a5,0(a0)
 8002422:	8082                	ret

08002424 <usart_transmit_config>:
 8002424:	4118                	lw	a4,0(a0)
 8002426:	9b5d                	andi	a4,a4,-9
 8002428:	c118                	sw	a4,0(a0)
 800242a:	411c                	lw	a5,0(a0)
 800242c:	8fcd                	or	a5,a5,a1
 800242e:	c11c                	sw	a5,0(a0)
 8002430:	8082                	ret

08002432 <usart_receive_config>:
 8002432:	4118                	lw	a4,0(a0)
 8002434:	9b6d                	andi	a4,a4,-5
 8002436:	c118                	sw	a4,0(a0)
 8002438:	411c                	lw	a5,0(a0)
 800243a:	8fcd                	or	a5,a5,a1
 800243c:	c11c                	sw	a5,0(a0)
 800243e:	8082                	ret

08002440 <usart_data_transmit>:
 8002440:	1ff5f593          	andi	a1,a1,511
 8002444:	d50c                	sw	a1,40(a0)
 8002446:	8082                	ret

08002448 <usart_data_receive>:
 8002448:	5148                	lw	a0,36(a0)
 800244a:	1ff57513          	andi	a0,a0,511
 800244e:	8082                	ret

08002450 <usart_receive_fifo_enable>:
 8002450:	0d052783          	lw	a5,208(a0) # 100d0 <__stack_size+0xf0d0>
 8002454:	1007e793          	ori	a5,a5,256
 8002458:	0cf52823          	sw	a5,208(a0)
 800245c:	8082                	ret

0800245e <usart_flag_get>:
 800245e:	0065d793          	srli	a5,a1,0x6
 8002462:	3ff7f793          	andi	a5,a5,1023
 8002466:	97aa                	add	a5,a5,a0
 8002468:	4388                	lw	a0,0(a5)
 800246a:	00b55533          	srl	a0,a0,a1
 800246e:	8905                	andi	a0,a0,1
 8002470:	8082                	ret

08002472 <usart_flag_clear>:
 8002472:	70500793          	li	a5,1797
 8002476:	02f58263          	beq	a1,a5,800249a <usart_flag_clear+0x28>
 800247a:	678d                	lui	a5,0x3
 800247c:	07a1                	addi	a5,a5,8
 800247e:	00f58763          	beq	a1,a5,800248c <usart_flag_clear+0x1a>
 8002482:	511c                	lw	a5,32(a0)
 8002484:	28b795b3          	bset	a1,a5,a1
 8002488:	d10c                	sw	a1,32(a0)
 800248a:	8082                	ret
 800248c:	0c052783          	lw	a5,192(a0)
 8002490:	eff7f793          	andi	a5,a5,-257
 8002494:	0cf52023          	sw	a5,192(a0)
 8002498:	8082                	ret
 800249a:	4d1c                	lw	a5,24(a0)
 800249c:	0087e793          	ori	a5,a5,8
 80024a0:	cd1c                	sw	a5,24(a0)
 80024a2:	8082                	ret

080024a4 <usart_interrupt_enable>:
 80024a4:	0065d793          	srli	a5,a1,0x6
 80024a8:	3ff7f793          	andi	a5,a5,1023
 80024ac:	953e                	add	a0,a0,a5
 80024ae:	411c                	lw	a5,0(a0)
 80024b0:	28b795b3          	bset	a1,a5,a1
 80024b4:	c10c                	sw	a1,0(a0)
 80024b6:	8082                	ret

080024b8 <Exception_Init>:
 80024b8:	200037b7          	lui	a5,0x20003
 80024bc:	56078793          	addi	a5,a5,1376 # 20003560 <SystemExceptionHandlers>
 80024c0:	08002737          	lui	a4,0x8002
 80024c4:	62e70713          	addi	a4,a4,1582 # 800262e <system_default_exception_handler>
 80024c8:	03478693          	addi	a3,a5,52
 80024cc:	c398                	sw	a4,0(a5)
 80024ce:	0791                	addi	a5,a5,4
 80024d0:	fed79ee3          	bne	a5,a3,80024cc <Exception_Init+0x14>
 80024d4:	8082                	ret

080024d6 <Exception_Register_EXC>:
 80024d6:	47ad                	li	a5,11
 80024d8:	00a7ea63          	bltu	a5,a0,80024ec <Exception_Register_EXC+0x16>
 80024dc:	200037b7          	lui	a5,0x20003
 80024e0:	56078793          	addi	a5,a5,1376 # 20003560 <SystemExceptionHandlers>
 80024e4:	20f54533          	sh2add	a0,a0,a5
 80024e8:	c10c                	sw	a1,0(a0)
 80024ea:	8082                	ret
 80024ec:	6785                	lui	a5,0x1
 80024ee:	17fd                	addi	a5,a5,-1
 80024f0:	00f50363          	beq	a0,a5,80024f6 <Exception_Register_EXC+0x20>
 80024f4:	8082                	ret
 80024f6:	200037b7          	lui	a5,0x20003
 80024fa:	58b7a823          	sw	a1,1424(a5) # 20003590 <SystemExceptionHandlers+0x30>
 80024fe:	8082                	ret

08002500 <core_exception_handler>:
 8002500:	6785                	lui	a5,0x1
 8002502:	17fd                	addi	a5,a5,-1
 8002504:	00f57733          	and	a4,a0,a5
 8002508:	46ad                	li	a3,11
 800250a:	02e6e063          	bltu	a3,a4,800252a <core_exception_handler+0x2a>
 800250e:	200037b7          	lui	a5,0x20003
 8002512:	56078793          	addi	a5,a5,1376 # 20003560 <SystemExceptionHandlers>
 8002516:	20f74733          	sh2add	a4,a4,a5
 800251a:	431c                	lw	a5,0(a4)
 800251c:	c39d                	beqz	a5,8002542 <core_exception_handler+0x42>
 800251e:	571012ef          	jal	t0,800428e <__riscv_save_0>
 8002522:	9782                	jalr	a5
 8002524:	4501                	li	a0,0
 8002526:	58d0106f          	j	80042b2 <__riscv_restore_0>
 800252a:	00f70e63          	beq	a4,a5,8002546 <core_exception_handler+0x46>
 800252e:	080027b7          	lui	a5,0x8002
 8002532:	62e78793          	addi	a5,a5,1582 # 800262e <system_default_exception_handler>
 8002536:	559012ef          	jal	t0,800428e <__riscv_save_0>
 800253a:	9782                	jalr	a5
 800253c:	4501                	li	a0,0
 800253e:	5750106f          	j	80042b2 <__riscv_restore_0>
 8002542:	4501                	li	a0,0
 8002544:	8082                	ret
 8002546:	200037b7          	lui	a5,0x20003
 800254a:	5907a783          	lw	a5,1424(a5) # 20003590 <SystemExceptionHandlers+0x30>
 800254e:	fbe1                	bnez	a5,800251e <core_exception_handler+0x1e>
 8002550:	bfcd                	j	8002542 <core_exception_handler+0x42>

08002552 <Exception_DumpFrame>:
 8002552:	53d012ef          	jal	t0,800428e <__riscv_save_0>
 8002556:	832a                	mv	t1,a0
 8002558:	08c52503          	lw	a0,140(a0)
 800255c:	7139                	addi	sp,sp,-64
 800255e:	09c32883          	lw	a7,156(t1) # ffffb09c <_sp+0xdfff5d9c>
 8002562:	09832803          	lw	a6,152(t1)
 8002566:	06832783          	lw	a5,104(t1)
 800256a:	06432703          	lw	a4,100(t1)
 800256e:	06032683          	lw	a3,96(t1)
 8002572:	05c32603          	lw	a2,92(t1)
 8002576:	05832583          	lw	a1,88(t1)
 800257a:	d82a                	sw	a0,48(sp)
 800257c:	08832503          	lw	a0,136(t1)
 8002580:	d62a                	sw	a0,44(sp)
 8002582:	08432503          	lw	a0,132(t1)
 8002586:	d42a                	sw	a0,40(sp)
 8002588:	09432503          	lw	a0,148(t1)
 800258c:	d22a                	sw	a0,36(sp)
 800258e:	09032503          	lw	a0,144(t1)
 8002592:	d02a                	sw	a0,32(sp)
 8002594:	08032e03          	lw	t3,128(t1)
 8002598:	08001537          	lui	a0,0x8001
 800259c:	52c50513          	addi	a0,a0,1324 # 800152c <_sicode+0x260>
 80025a0:	ce72                	sw	t3,28(sp)
 80025a2:	07c32e03          	lw	t3,124(t1)
 80025a6:	cc72                	sw	t3,24(sp)
 80025a8:	07832e03          	lw	t3,120(t1)
 80025ac:	ca72                	sw	t3,20(sp)
 80025ae:	07432e03          	lw	t3,116(t1)
 80025b2:	c872                	sw	t3,16(sp)
 80025b4:	07032e03          	lw	t3,112(t1)
 80025b8:	c672                	sw	t3,12(sp)
 80025ba:	06c32e03          	lw	t3,108(t1)
 80025be:	c472                	sw	t3,8(sp)
 80025c0:	0a432e03          	lw	t3,164(t1)
 80025c4:	c272                	sw	t3,4(sp)
 80025c6:	0a032303          	lw	t1,160(t1)
 80025ca:	c01a                	sw	t1,0(sp)
 80025cc:	713010ef          	jal	ra,80044de <iprintf>
 80025d0:	6121                	addi	sp,sp,64
 80025d2:	4e10106f          	j	80042b2 <__riscv_restore_0>

080025d6 <nmi_handler>:
 80025d6:	4b9012ef          	jal	t0,800428e <__riscv_save_0>
 80025da:	84aa                	mv	s1,a0
 80025dc:	08001537          	lui	a0,0x8001
 80025e0:	5fc50513          	addi	a0,a0,1532 # 80015fc <_sicode+0x330>
 80025e4:	842e                	mv	s0,a1
 80025e6:	00c020ef          	jal	ra,80045f2 <puts>
 80025ea:	08001537          	lui	a0,0x8001
 80025ee:	85a6                	mv	a1,s1
 80025f0:	60450513          	addi	a0,a0,1540 # 8001604 <_sicode+0x338>
 80025f4:	6eb010ef          	jal	ra,80044de <iprintf>
 80025f8:	7c9025f3          	csrr	a1,mdcause
 80025fc:	08001537          	lui	a0,0x8001
 8002600:	61850513          	addi	a0,a0,1560 # 8001618 <_sicode+0x34c>
 8002604:	6db010ef          	jal	ra,80044de <iprintf>
 8002608:	341025f3          	csrr	a1,mepc
 800260c:	08001537          	lui	a0,0x8001
 8002610:	62c50513          	addi	a0,a0,1580 # 800162c <_sicode+0x360>
 8002614:	6cb010ef          	jal	ra,80044de <iprintf>
 8002618:	343025f3          	csrr	a1,mtval
 800261c:	08001537          	lui	a0,0x8001
 8002620:	64050513          	addi	a0,a0,1600 # 8001640 <_sicode+0x374>
 8002624:	6bb010ef          	jal	ra,80044de <iprintf>
 8002628:	8522                	mv	a0,s0
 800262a:	3725                	jal	8002552 <Exception_DumpFrame>
 800262c:	a001                	j	800262c <nmi_handler+0x56>

0800262e <system_default_exception_handler>:
 800262e:	461012ef          	jal	t0,800428e <__riscv_save_0>
 8002632:	87aa                	mv	a5,a0
 8002634:	08001537          	lui	a0,0x8001
 8002638:	842e                	mv	s0,a1
 800263a:	60450513          	addi	a0,a0,1540 # 8001604 <_sicode+0x338>
 800263e:	85be                	mv	a1,a5
 8002640:	69f010ef          	jal	ra,80044de <iprintf>
 8002644:	7c9025f3          	csrr	a1,mdcause
 8002648:	08001537          	lui	a0,0x8001
 800264c:	61850513          	addi	a0,a0,1560 # 8001618 <_sicode+0x34c>
 8002650:	68f010ef          	jal	ra,80044de <iprintf>
 8002654:	341025f3          	csrr	a1,mepc
 8002658:	08001537          	lui	a0,0x8001
 800265c:	62c50513          	addi	a0,a0,1580 # 800162c <_sicode+0x360>
 8002660:	67f010ef          	jal	ra,80044de <iprintf>
 8002664:	343025f3          	csrr	a1,mtval
 8002668:	08001537          	lui	a0,0x8001
 800266c:	64050513          	addi	a0,a0,1600 # 8001640 <_sicode+0x374>
 8002670:	66f010ef          	jal	ra,80044de <iprintf>
 8002674:	8522                	mv	a0,s0
 8002676:	3df1                	jal	8002552 <Exception_DumpFrame>
 8002678:	a001                	j	8002678 <system_default_exception_handler+0x4a>

0800267a <_premain_init>:
 800267a:	415012ef          	jal	t0,800428e <__riscv_save_0>
 800267e:	4785                	li	a5,1
 8002680:	7ca7a073          	csrs	mcache_ctl,a5
 8002684:	3d15                	jal	80024b8 <Exception_Init>
 8002686:	080025b7          	lui	a1,0x8002
 800268a:	6505                	lui	a0,0x1
 800268c:	5d658593          	addi	a1,a1,1494 # 80025d6 <nmi_handler>
 8002690:	157d                	addi	a0,a0,-1
 8002692:	3591                	jal	80024d6 <Exception_Register_EXC>
 8002694:	4501                	li	a0,0
 8002696:	ec8ff0ef          	jal	ra,8001d5e <eclic_level_threshold_set>
 800269a:	4509                	li	a0,2
 800269c:	eccff0ef          	jal	ra,8001d68 <eclic_priority_group_set>
 80026a0:	eb6ff0ef          	jal	ra,8001d56 <eclic_global_interrupt_enable>
 80026a4:	4795                	li	a5,5
 80026a6:	3207a073          	csrs	mcountinhibit,a5
 80026aa:	4090106f          	j	80042b2 <__riscv_restore_0>

080026ae <_postmain_fini>:
 80026ae:	8082                	ret

080026b0 <_init>:
 80026b0:	8082                	ret

080026b2 <_fini>:
 80026b2:	8082                	ret
	...

080026c0 <exc_entry>:
 80026c0:	34911173          	csrrw	sp,mscratchcswl,sp
 80026c4:	715d                	addi	sp,sp,-80
 80026c6:	c006                	sw	ra,0(sp)
 80026c8:	c212                	sw	tp,4(sp)
 80026ca:	c416                	sw	t0,8(sp)
 80026cc:	c61a                	sw	t1,12(sp)
 80026ce:	c81e                	sw	t2,16(sp)
 80026d0:	ca2a                	sw	a0,20(sp)
 80026d2:	cc2e                	sw	a1,24(sp)
 80026d4:	ce32                	sw	a2,28(sp)
 80026d6:	d036                	sw	a3,32(sp)
 80026d8:	d23a                	sw	a4,36(sp)
 80026da:	d43e                	sw	a5,40(sp)
 80026dc:	dc42                	sw	a6,56(sp)
 80026de:	de46                	sw	a7,60(sp)
 80026e0:	c0f2                	sw	t3,64(sp)
 80026e2:	c2f6                	sw	t4,68(sp)
 80026e4:	c4fa                	sw	t5,72(sp)
 80026e6:	c6fe                	sw	t6,76(sp)
 80026e8:	7ee5d073          	csrwi	pushmcause,11
 80026ec:	7ef65073          	csrwi	pushmepc,12
 80026f0:	7eb6d073          	csrwi	pushmsubm,13
 80026f4:	fa810113          	addi	sp,sp,-88
 80026f8:	003022f3          	frcsr	t0
 80026fc:	ca96                	sw	t0,84(sp)
 80026fe:	e002                	fsw	ft0,0(sp)
 8002700:	e206                	fsw	ft1,4(sp)
 8002702:	e40a                	fsw	ft2,8(sp)
 8002704:	e60e                	fsw	ft3,12(sp)
 8002706:	e812                	fsw	ft4,16(sp)
 8002708:	ea16                	fsw	ft5,20(sp)
 800270a:	ec1a                	fsw	ft6,24(sp)
 800270c:	ee1e                	fsw	ft7,28(sp)
 800270e:	f02a                	fsw	fa0,32(sp)
 8002710:	f22e                	fsw	fa1,36(sp)
 8002712:	f432                	fsw	fa2,40(sp)
 8002714:	f636                	fsw	fa3,44(sp)
 8002716:	f83a                	fsw	fa4,48(sp)
 8002718:	fa3e                	fsw	fa5,52(sp)
 800271a:	fc42                	fsw	fa6,56(sp)
 800271c:	fe46                	fsw	fa7,60(sp)
 800271e:	e0f2                	fsw	ft8,64(sp)
 8002720:	e2f6                	fsw	ft9,68(sp)
 8002722:	e4fa                	fsw	ft10,72(sp)
 8002724:	e6fe                	fsw	ft11,76(sp)
 8002726:	34202573          	csrr	a0,mcause
 800272a:	858a                	mv	a1,sp
 800272c:	3bd1                	jal	8002500 <core_exception_handler>
 800272e:	6002                	flw	ft0,0(sp)
 8002730:	6092                	flw	ft1,4(sp)
 8002732:	6122                	flw	ft2,8(sp)
 8002734:	61b2                	flw	ft3,12(sp)
 8002736:	6242                	flw	ft4,16(sp)
 8002738:	62d2                	flw	ft5,20(sp)
 800273a:	6362                	flw	ft6,24(sp)
 800273c:	63f2                	flw	ft7,28(sp)
 800273e:	7502                	flw	fa0,32(sp)
 8002740:	7592                	flw	fa1,36(sp)
 8002742:	7622                	flw	fa2,40(sp)
 8002744:	76b2                	flw	fa3,44(sp)
 8002746:	7742                	flw	fa4,48(sp)
 8002748:	77d2                	flw	fa5,52(sp)
 800274a:	7862                	flw	fa6,56(sp)
 800274c:	78f2                	flw	fa7,60(sp)
 800274e:	6e06                	flw	ft8,64(sp)
 8002750:	6e96                	flw	ft9,68(sp)
 8002752:	6f26                	flw	ft10,72(sp)
 8002754:	6fb6                	flw	ft11,76(sp)
 8002756:	42d6                	lw	t0,84(sp)
 8002758:	00329073          	fscsr	t0
 800275c:	05810113          	addi	sp,sp,88
 8002760:	52d2                	lw	t0,52(sp)
 8002762:	7c429073          	csrw	msubm,t0
 8002766:	52c2                	lw	t0,48(sp)
 8002768:	34129073          	csrw	mepc,t0
 800276c:	52b2                	lw	t0,44(sp)
 800276e:	34229073          	csrw	mcause,t0
 8002772:	4082                	lw	ra,0(sp)
 8002774:	4212                	lw	tp,4(sp)
 8002776:	42a2                	lw	t0,8(sp)
 8002778:	4332                	lw	t1,12(sp)
 800277a:	43c2                	lw	t2,16(sp)
 800277c:	4552                	lw	a0,20(sp)
 800277e:	45e2                	lw	a1,24(sp)
 8002780:	4672                	lw	a2,28(sp)
 8002782:	5682                	lw	a3,32(sp)
 8002784:	5712                	lw	a4,36(sp)
 8002786:	57a2                	lw	a5,40(sp)
 8002788:	5862                	lw	a6,56(sp)
 800278a:	58f2                	lw	a7,60(sp)
 800278c:	4e06                	lw	t3,64(sp)
 800278e:	4e96                	lw	t4,68(sp)
 8002790:	4f26                	lw	t5,72(sp)
 8002792:	4fb6                	lw	t6,76(sp)
 8002794:	6161                	addi	sp,sp,80
 8002796:	34911173          	csrrw	sp,mscratchcswl,sp
 800279a:	30200073          	mret
	...

080027bc <irq_entry>:
 80027bc:	34911173          	csrrw	sp,mscratchcswl,sp
 80027c0:	715d                	addi	sp,sp,-80
 80027c2:	c006                	sw	ra,0(sp)
 80027c4:	c212                	sw	tp,4(sp)
 80027c6:	c416                	sw	t0,8(sp)
 80027c8:	c61a                	sw	t1,12(sp)
 80027ca:	c81e                	sw	t2,16(sp)
 80027cc:	ca2a                	sw	a0,20(sp)
 80027ce:	cc2e                	sw	a1,24(sp)
 80027d0:	ce32                	sw	a2,28(sp)
 80027d2:	d036                	sw	a3,32(sp)
 80027d4:	d23a                	sw	a4,36(sp)
 80027d6:	d43e                	sw	a5,40(sp)
 80027d8:	dc42                	sw	a6,56(sp)
 80027da:	de46                	sw	a7,60(sp)
 80027dc:	c0f2                	sw	t3,64(sp)
 80027de:	c2f6                	sw	t4,68(sp)
 80027e0:	c4fa                	sw	t5,72(sp)
 80027e2:	c6fe                	sw	t6,76(sp)
 80027e4:	7ee5d073          	csrwi	pushmcause,11
 80027e8:	7ef65073          	csrwi	pushmepc,12
 80027ec:	7eb6d073          	csrwi	pushmsubm,13
 80027f0:	300022f3          	csrr	t0,mstatus
 80027f4:	0a02d763          	bgez	t0,80028a2 <_no_save_float_register>
 80027f8:	fa810113          	addi	sp,sp,-88
 80027fc:	003022f3          	frcsr	t0
 8002800:	ca96                	sw	t0,84(sp)
 8002802:	e002                	fsw	ft0,0(sp)
 8002804:	e206                	fsw	ft1,4(sp)
 8002806:	e40a                	fsw	ft2,8(sp)
 8002808:	e60e                	fsw	ft3,12(sp)
 800280a:	e812                	fsw	ft4,16(sp)
 800280c:	ea16                	fsw	ft5,20(sp)
 800280e:	ec1a                	fsw	ft6,24(sp)
 8002810:	ee1e                	fsw	ft7,28(sp)
 8002812:	f02a                	fsw	fa0,32(sp)
 8002814:	f22e                	fsw	fa1,36(sp)
 8002816:	f432                	fsw	fa2,40(sp)
 8002818:	f636                	fsw	fa3,44(sp)
 800281a:	f83a                	fsw	fa4,48(sp)
 800281c:	fa3e                	fsw	fa5,52(sp)
 800281e:	fc42                	fsw	fa6,56(sp)
 8002820:	fe46                	fsw	fa7,60(sp)
 8002822:	e0f2                	fsw	ft8,64(sp)
 8002824:	e2f6                	fsw	ft9,68(sp)
 8002826:	e4fa                	fsw	ft10,72(sp)
 8002828:	e6fe                	fsw	ft11,76(sp)
 800282a:	7ed090f3          	csrrw	ra,jalmnxti,ra
 800282e:	30047073          	csrci	mstatus,8
 8002832:	6002                	flw	ft0,0(sp)
 8002834:	6092                	flw	ft1,4(sp)
 8002836:	6122                	flw	ft2,8(sp)
 8002838:	61b2                	flw	ft3,12(sp)
 800283a:	6242                	flw	ft4,16(sp)
 800283c:	62d2                	flw	ft5,20(sp)
 800283e:	6362                	flw	ft6,24(sp)
 8002840:	63f2                	flw	ft7,28(sp)
 8002842:	7502                	flw	fa0,32(sp)
 8002844:	7592                	flw	fa1,36(sp)
 8002846:	7622                	flw	fa2,40(sp)
 8002848:	76b2                	flw	fa3,44(sp)
 800284a:	7742                	flw	fa4,48(sp)
 800284c:	77d2                	flw	fa5,52(sp)
 800284e:	7862                	flw	fa6,56(sp)
 8002850:	78f2                	flw	fa7,60(sp)
 8002852:	6e06                	flw	ft8,64(sp)
 8002854:	6e96                	flw	ft9,68(sp)
 8002856:	6f26                	flw	ft10,72(sp)
 8002858:	6fb6                	flw	ft11,76(sp)
 800285a:	42d6                	lw	t0,84(sp)
 800285c:	00329073          	fscsr	t0
 8002860:	05810113          	addi	sp,sp,88
 8002864:	52d2                	lw	t0,52(sp)
 8002866:	7c429073          	csrw	msubm,t0
 800286a:	52c2                	lw	t0,48(sp)
 800286c:	34129073          	csrw	mepc,t0
 8002870:	52b2                	lw	t0,44(sp)
 8002872:	34229073          	csrw	mcause,t0
 8002876:	4082                	lw	ra,0(sp)
 8002878:	4212                	lw	tp,4(sp)
 800287a:	42a2                	lw	t0,8(sp)
 800287c:	4332                	lw	t1,12(sp)
 800287e:	43c2                	lw	t2,16(sp)
 8002880:	4552                	lw	a0,20(sp)
 8002882:	45e2                	lw	a1,24(sp)
 8002884:	4672                	lw	a2,28(sp)
 8002886:	5682                	lw	a3,32(sp)
 8002888:	5712                	lw	a4,36(sp)
 800288a:	57a2                	lw	a5,40(sp)
 800288c:	5862                	lw	a6,56(sp)
 800288e:	58f2                	lw	a7,60(sp)
 8002890:	4e06                	lw	t3,64(sp)
 8002892:	4e96                	lw	t4,68(sp)
 8002894:	4f26                	lw	t5,72(sp)
 8002896:	4fb6                	lw	t6,76(sp)
 8002898:	6161                	addi	sp,sp,80
 800289a:	34911173          	csrrw	sp,mscratchcswl,sp
 800289e:	30200073          	mret

080028a2 <_no_save_float_register>:
 80028a2:	fa810113          	addi	sp,sp,-88
 80028a6:	7ed090f3          	csrrw	ra,jalmnxti,ra
 80028aa:	30047073          	csrci	mstatus,8
 80028ae:	05810113          	addi	sp,sp,88
 80028b2:	52d2                	lw	t0,52(sp)
 80028b4:	7c429073          	csrw	msubm,t0
 80028b8:	52c2                	lw	t0,48(sp)
 80028ba:	34129073          	csrw	mepc,t0
 80028be:	52b2                	lw	t0,44(sp)
 80028c0:	34229073          	csrw	mcause,t0
 80028c4:	4082                	lw	ra,0(sp)
 80028c6:	4212                	lw	tp,4(sp)
 80028c8:	42a2                	lw	t0,8(sp)
 80028ca:	4332                	lw	t1,12(sp)
 80028cc:	43c2                	lw	t2,16(sp)
 80028ce:	4552                	lw	a0,20(sp)
 80028d0:	45e2                	lw	a1,24(sp)
 80028d2:	4672                	lw	a2,28(sp)
 80028d4:	5682                	lw	a3,32(sp)
 80028d6:	5712                	lw	a4,36(sp)
 80028d8:	57a2                	lw	a5,40(sp)
 80028da:	5862                	lw	a6,56(sp)
 80028dc:	58f2                	lw	a7,60(sp)
 80028de:	4e06                	lw	t3,64(sp)
 80028e0:	4e96                	lw	t4,68(sp)
 80028e2:	4f26                	lw	t5,72(sp)
 80028e4:	4fb6                	lw	t6,76(sp)
 80028e6:	6161                	addi	sp,sp,80
 80028e8:	34911173          	csrrw	sp,mscratchcswl,sp
 80028ec:	30200073          	mret

080028f0 <default_intexc_handler>:
 80028f0:	a001                	j	80028f0 <default_intexc_handler>

080028f2 <rom_symbol_init>:
 80028f2:	16d012ef          	jal	t0,800425e <__riscv_save_12>
 80028f6:	400247b7          	lui	a5,0x40024
 80028fa:	9387a783          	lw	a5,-1736(a5) # 40023938 <_sp+0x2001e638>
 80028fe:	1141                	addi	sp,sp,-16
 8002900:	0ff7f793          	zext.b	a5,a5
 8002904:	42079d63          	bnez	a5,8002d3e <rom_symbol_init+0x44c>
 8002908:	07300513          	li	a0,115
 800290c:	03f5c097          	auipc	ra,0x3f5c
 8002910:	306080e7          	jalr	774(ra) # bf5ec12 <mbedtls_hwpka_flag_set>
 8002914:	0bf74537          	lui	a0,0xbf74
 8002918:	0bf71337          	lui	t1,0xbf71
 800291c:	eb850293          	addi	t0,a0,-328 # bf73eb8 <mbedtls_mpi_mul_mpi_sw+0x56d8>
 8002920:	20000e37          	lui	t3,0x20000
 8002924:	0bf73637          	lui	a2,0xbf73
 8002928:	5dc30f93          	addi	t6,t1,1500 # bf715dc <mbedtls_mpi_mul_mpi_sw+0x2dfc>
 800292c:	365e2823          	sw	t0,880(t3) # 20000370 <ecp_supported_curves>
 8002930:	20000e37          	lui	t3,0x20000
 8002934:	0bf725b7          	lui	a1,0xbf72
 8002938:	c3e60f13          	addi	t5,a2,-962 # bf72c3e <mbedtls_mpi_mul_mpi_sw+0x445e>
 800293c:	37fe2a23          	sw	t6,884(t3) # 20000374 <mbedtls_ecdsa_free_fn>
 8002940:	17258e93          	addi	t4,a1,370 # bf72172 <mbedtls_mpi_mul_mpi_sw+0x3992>
 8002944:	85e1a223          	sw	t5,-1980(gp) # 200003a4 <mbedtls_ecp_check_privkey_fn>
 8002948:	85d1a823          	sw	t4,-1968(gp) # 200003b0 <mbedtls_ecp_copy_fn>
 800294c:	58a30e93          	addi	t4,t1,1418
 8002950:	20000e37          	lui	t3,0x20000
 8002954:	37de2c23          	sw	t4,888(t3) # 20000378 <mbedtls_ecdsa_from_keypair_fn>
 8002958:	54c30e93          	addi	t4,t1,1356
 800295c:	20000e37          	lui	t3,0x20000
 8002960:	37de2e23          	sw	t4,892(t3) # 2000037c <mbedtls_ecdsa_genkey_fn>
 8002964:	5d830e93          	addi	t4,t1,1496
 8002968:	20000e37          	lui	t3,0x20000
 800296c:	39de2023          	sw	t4,896(t3) # 20000380 <mbedtls_ecdsa_init_fn>
 8002970:	54630e93          	addi	t4,t1,1350
 8002974:	20000e37          	lui	t3,0x20000
 8002978:	39de2223          	sw	t4,900(t3) # 20000384 <mbedtls_ecdsa_read_signature_fn>
 800297c:	4a030e93          	addi	t4,t1,1184
 8002980:	20000e37          	lui	t3,0x20000
 8002984:	39de2423          	sw	t4,904(t3) # 20000388 <mbedtls_ecdsa_read_signature_restartable_fn>
 8002988:	bca30e93          	addi	t4,t1,-1078
 800298c:	20000e37          	lui	t3,0x20000
 8002990:	39de2823          	sw	t4,912(t3) # 20000390 <mbedtls_ecdsa_sign_fn>
 8002994:	08c30e93          	addi	t4,t1,140
 8002998:	20000e37          	lui	t3,0x20000
 800299c:	39de2623          	sw	t4,908(t3) # 2000038c <mbedtls_ecdsa_sign_det_fn>
 80029a0:	09030e93          	addi	t4,t1,144
 80029a4:	20000e37          	lui	t3,0x20000
 80029a8:	39de2a23          	sw	t4,916(t3) # 20000394 <mbedtls_ecdsa_verify_fn>
 80029ac:	47030e93          	addi	t4,t1,1136
 80029b0:	20000e37          	lui	t3,0x20000
 80029b4:	39de2e23          	sw	t4,924(t3) # 2000039c <mbedtls_ecdsa_write_signature_fn>
 80029b8:	48030e93          	addi	t4,t1,1152
 80029bc:	20000e37          	lui	t3,0x20000
 80029c0:	39de2c23          	sw	t4,920(t3) # 20000398 <mbedtls_ecdsa_write_signature_det_fn>
 80029c4:	3aa30313          	addi	t1,t1,938
 80029c8:	8461a023          	sw	t1,-1984(gp) # 200003a0 <mbedtls_ecdsa_write_signature_restartable_fn>
 80029cc:	f7e58e13          	addi	t3,a1,-130
 80029d0:	85c1aa23          	sw	t3,-1964(gp) # 200003b4 <mbedtls_ecp_curve_info_from_grp_id_fn>
 80029d4:	fda58e13          	addi	t3,a1,-38
 80029d8:	85c1ac23          	sw	t3,-1960(gp) # 200003b8 <mbedtls_ecp_curve_info_from_name_fn>
 80029dc:	faa58e13          	addi	t3,a1,-86
 80029e0:	85c1ae23          	sw	t3,-1956(gp) # 200003bc <mbedtls_ecp_curve_info_from_tls_id_fn>
 80029e4:	f0a58e13          	addi	t3,a1,-246
 80029e8:	87c1a023          	sw	t3,-1952(gp) # 200003c0 <mbedtls_ecp_curve_list_fn>
 80029ec:	1b058e13          	addi	t3,a1,432
 80029f0:	87c1aa23          	sw	t3,-1932(gp) # 200003d4 <mbedtls_ecp_group_copy_fn>
 80029f4:	0cc58e13          	addi	t3,a1,204
 80029f8:	87c1ac23          	sw	t3,-1928(gp) # 200003d8 <mbedtls_ecp_group_free_fn>
 80029fc:	c8e50c13          	addi	s8,a0,-882
 8002a00:	04458e13          	addi	t3,a1,68
 8002a04:	87c1ae23          	sw	t3,-1924(gp) # 200003dc <mbedtls_ecp_group_init_fn>
 8002a08:	8581a423          	sw	s8,-1976(gp) # 200003a8 <mbedtls_ecp_check_pub_priv_fn>
 8002a0c:	f3258e13          	addi	t3,a1,-206
 8002a10:	c4850c13          	addi	s8,a0,-952
 8002a14:	f6a60d93          	addi	s11,a2,-150
 8002a18:	89c1a023          	sw	t3,-1920(gp) # 200003e0 <mbedtls_ecp_grp_id_list_fn>
 8002a1c:	8781a223          	sw	s8,-1948(gp) # 200003c4 <mbedtls_ecp_gen_key_fn>
 8002a20:	14c58e13          	addi	t3,a1,332
 8002a24:	c3850c13          	addi	s8,a0,-968
 8002a28:	85b1a623          	sw	s11,-1972(gp) # 200003ac <mbedtls_ecp_check_pubkey_fn>
 8002a2c:	cbc60d93          	addi	s11,a2,-836
 8002a30:	89c1a423          	sw	t3,-1912(gp) # 200003e8 <mbedtls_ecp_keypair_free_fn>
 8002a34:	8781a623          	sw	s8,-1940(gp) # 200003cc <mbedtls_ecp_gen_keypair_fn>
 8002a38:	0a258e13          	addi	t3,a1,162
 8002a3c:	bdc50c13          	addi	s8,a0,-1060
 8002a40:	87b1a823          	sw	s11,-1936(gp) # 200003d0 <mbedtls_ecp_gen_privkey_fn>
 8002a44:	8e460d93          	addi	s11,a2,-1820
 8002a48:	89c1a623          	sw	t3,-1908(gp) # 200003ec <mbedtls_ecp_keypair_init_fn>
 8002a4c:	8781a423          	sw	s8,-1944(gp) # 200003c8 <mbedtls_ecp_gen_keypair_base_fn>
 8002a50:	bd650c93          	addi	s9,a0,-1066
 8002a54:	89b1a223          	sw	s11,-1916(gp) # 200003e4 <mbedtls_ecp_is_zero_fn>
 8002a58:	8991a823          	sw	s9,-1904(gp) # 200003f0 <mbedtls_ecp_mul_fn>
 8002a5c:	22060d13          	addi	s10,a2,544
 8002a60:	e9850c13          	addi	s8,a0,-360
 8002a64:	89a1aa23          	sw	s10,-1900(gp) # 200003f4 <mbedtls_ecp_mul_restartable_fn>
 8002a68:	e7c50b93          	addi	s7,a0,-388
 8002a6c:	8981ac23          	sw	s8,-1896(gp) # 200003f8 <mbedtls_ecp_muladd_fn>
 8002a70:	8fa60c93          	addi	s9,a2,-1798
 8002a74:	8971ae23          	sw	s7,-1892(gp) # 200003fc <mbedtls_ecp_muladd_restartable_fn>
 8002a78:	0c458b13          	addi	s6,a1,196
 8002a7c:	8b91a023          	sw	s9,-1888(gp) # 20000400 <mbedtls_ecp_point_cmp_fn>
 8002a80:	02258a93          	addi	s5,a1,34
 8002a84:	8b61a223          	sw	s6,-1884(gp) # 20000404 <mbedtls_ecp_point_free_fn>
 8002a88:	a5460c13          	addi	s8,a2,-1452
 8002a8c:	8b51a423          	sw	s5,-1880(gp) # 20000408 <mbedtls_ecp_point_init_fn>
 8002a90:	94260d13          	addi	s10,a2,-1726
 8002a94:	8b81a623          	sw	s8,-1876(gp) # 2000040c <mbedtls_ecp_point_read_binary_fn>
 8002a98:	98660b93          	addi	s7,a2,-1658
 8002a9c:	8ba1a823          	sw	s10,-1872(gp) # 20000410 <mbedtls_ecp_point_read_string_fn>
 8002aa0:	8b71aa23          	sw	s7,-1868(gp) # 20000414 <mbedtls_ecp_point_write_binary_fn>
 8002aa4:	1b658593          	addi	a1,a1,438
 8002aa8:	bc460b13          	addi	s6,a2,-1084
 8002aac:	8ab1ac23          	sw	a1,-1864(gp) # 20000418 <mbedtls_ecp_set_zero_fn>
 8002ab0:	b5c60c93          	addi	s9,a2,-1188
 8002ab4:	8b61ae23          	sw	s6,-1860(gp) # 2000041c <mbedtls_ecp_tls_read_group_fn>
 8002ab8:	af260c13          	addi	s8,a2,-1294
 8002abc:	8d91a023          	sw	s9,-1856(gp) # 20000420 <mbedtls_ecp_tls_read_group_id_fn>
 8002ac0:	be460a93          	addi	s5,a2,-1052
 8002ac4:	8d81a223          	sw	s8,-1852(gp) # 20000424 <mbedtls_ecp_tls_read_point_fn>
 8002ac8:	0bf77737          	lui	a4,0xbf77
 8002acc:	8d51a423          	sw	s5,-1848(gp) # 20000428 <mbedtls_ecp_tls_write_group_fn>
 8002ad0:	b2660613          	addi	a2,a2,-1242
 8002ad4:	0bf767b7          	lui	a5,0xbf76
 8002ad8:	91270a13          	addi	s4,a4,-1774 # bf76912 <mbedtls_mpi_mul_mpi_sw+0x8132>
 8002adc:	8cc1a623          	sw	a2,-1844(gp) # 2000042c <mbedtls_ecp_tls_write_point_fn>
 8002ae0:	74e78993          	addi	s3,a5,1870 # bf7674e <mbedtls_mpi_mul_mpi_sw+0x7f6e>
 8002ae4:	8d41a823          	sw	s4,-1840(gp) # 20000430 <mbedtls_internal_md5_process_fn>
 8002ae8:	78e70913          	addi	s2,a4,1934
 8002aec:	8d31aa23          	sw	s3,-1836(gp) # 20000434 <mbedtls_internal_sha256_process_fn>
 8002af0:	8a470493          	addi	s1,a4,-1884
 8002af4:	8f21a223          	sw	s2,-1820(gp) # 20000444 <mbedtls_md5_fn>
 8002af8:	75870413          	addi	s0,a4,1880
 8002afc:	8c91ac23          	sw	s1,-1832(gp) # 20000438 <mbedtls_md5_clone_fn>
 8002b00:	65a70393          	addi	t2,a4,1626
 8002b04:	8c81ae23          	sw	s0,-1828(gp) # 2000043c <mbedtls_md5_finish_fn>
 8002b08:	89870293          	addi	t0,a4,-1896
 8002b0c:	8e71a023          	sw	t2,-1824(gp) # 20000440 <mbedtls_md5_finish_ret_fn>
 8002b10:	88e70f93          	addi	t6,a4,-1906
 8002b14:	8e51a423          	sw	t0,-1816(gp) # 20000448 <mbedtls_md5_free_fn>
 8002b18:	64470f13          	addi	t5,a4,1604
 8002b1c:	8ff1a623          	sw	t6,-1812(gp) # 2000044c <mbedtls_md5_init_fn>
 8002b20:	75c70e93          	addi	t4,a4,1884
 8002b24:	8fe1a823          	sw	t5,-1808(gp) # 20000450 <mbedtls_md5_process_fn>
 8002b28:	8e070e13          	addi	t3,a4,-1824
 8002b2c:	8fd1aa23          	sw	t4,-1804(gp) # 20000454 <mbedtls_md5_ret_fn>
 8002b30:	8ac70313          	addi	t1,a4,-1876
 8002b34:	8fc1ac23          	sw	t3,-1800(gp) # 20000458 <mbedtls_md5_starts_fn>
 8002b38:	0bf775b7          	lui	a1,0xbf77
 8002b3c:	8e61ae23          	sw	t1,-1796(gp) # 2000045c <mbedtls_md5_starts_ret_fn>
 8002b40:	65258413          	addi	s0,a1,1618 # bf77652 <mbedtls_mpi_mul_mpi_sw+0x8e72>
 8002b44:	9081a023          	sw	s0,-1792(gp) # 20000460 <mbedtls_md5_update_fn>
 8002b48:	64858593          	addi	a1,a1,1608
 8002b4c:	90b1a223          	sw	a1,-1788(gp) # 20000464 <mbedtls_md5_update_ret_fn>
 8002b50:	0bf6f5b7          	lui	a1,0xbf6f
 8002b54:	20a58413          	addi	s0,a1,522 # bf6f20a <mbedtls_mpi_mul_mpi_sw+0xa2a>
 8002b58:	9081a423          	sw	s0,-1784(gp) # 20000468 <mbedtls_mpi_div_int_fn>
 8002b5c:	d1e58413          	addi	s0,a1,-738
 8002b60:	9081a623          	sw	s0,-1780(gp) # 2000046c <mbedtls_mpi_div_mpi_fn>
 8002b64:	0bf70437          	lui	s0,0xbf70
 8002b68:	b5c40493          	addi	s1,s0,-1188 # bf6fb5c <mbedtls_mpi_mul_mpi_sw+0x137c>
 8002b6c:	9091a823          	sw	s1,-1776(gp) # 20000470 <mbedtls_mpi_exp_mod_fn>
 8002b70:	49050f93          	addi	t6,a0,1168
 8002b74:	72850e93          	addi	t4,a0,1832
 8002b78:	5f050313          	addi	t1,a0,1520
 8002b7c:	36450d13          	addi	s10,a0,868
 8002b80:	3f650513          	addi	a0,a0,1014
 8002b84:	c62a                	sw	a0,12(sp)
 8002b86:	54c58593          	addi	a1,a1,1356
 8002b8a:	90b1aa23          	sw	a1,-1772(gp) # 20000474 <mbedtls_mpi_exp_mod_sw_fn>
 8002b8e:	0bf705b7          	lui	a1,0xbf70
 8002b92:	0bf708b7          	lui	a7,0xbf70
 8002b96:	ee458593          	addi	a1,a1,-284 # bf6fee4 <mbedtls_mpi_mul_mpi_sw+0x1704>
 8002b9a:	cec88c13          	addi	s8,a7,-788 # bf6fcec <mbedtls_mpi_mul_mpi_sw+0x150c>
 8002b9e:	90b1ac23          	sw	a1,-1768(gp) # 20000478 <mbedtls_mpi_fill_random_fn>
 8002ba2:	5e288b93          	addi	s7,a7,1506
 8002ba6:	9181ae23          	sw	s8,-1764(gp) # 2000047c <mbedtls_mpi_gcd_fn>
 8002baa:	21288b13          	addi	s6,a7,530
 8002bae:	9371a023          	sw	s7,-1760(gp) # 20000480 <mbedtls_mpi_gen_prime_fn>
 8002bb2:	5d688a93          	addi	s5,a7,1494
 8002bb6:	9361a223          	sw	s6,-1756(gp) # 20000484 <mbedtls_mpi_inv_mod_fn>
 8002bba:	0bf6f837          	lui	a6,0xbf6f
 8002bbe:	9351a623          	sw	s5,-1748(gp) # 2000048c <mbedtls_mpi_is_prime_fn>
 8002bc2:	53488893          	addi	a7,a7,1332
 8002bc6:	2d080a13          	addi	s4,a6,720 # bf6f2d0 <mbedtls_mpi_mul_mpi_sw+0xaf0>
 8002bca:	9311a423          	sw	a7,-1752(gp) # 20000488 <mbedtls_mpi_is_prime_ext_fn>
 8002bce:	23480993          	addi	s3,a6,564
 8002bd2:	9341a823          	sw	s4,-1744(gp) # 20000490 <mbedtls_mpi_mod_int_fn>
 8002bd6:	d0480913          	addi	s2,a6,-764
 8002bda:	9331aa23          	sw	s3,-1740(gp) # 20000494 <mbedtls_mpi_mod_mpi_fn>
 8002bde:	ad680493          	addi	s1,a6,-1322
 8002be2:	9321ac23          	sw	s2,-1736(gp) # 20000498 <mbedtls_mpi_mul_int_fn>
 8002be6:	30480d93          	addi	s11,a6,772
 8002bea:	9291ae23          	sw	s1,-1732(gp) # 2000049c <mbedtls_mpi_mul_mpi_fn>
 8002bee:	aec80813          	addi	a6,a6,-1300
 8002bf2:	0bf756b7          	lui	a3,0xbf75
 8002bf6:	9501a023          	sw	a6,-1728(gp) # 200004a0 <mbedtls_mpi_read_string_fn>
 8002bfa:	97268413          	addi	s0,a3,-1678 # bf74972 <mbedtls_mpi_mul_mpi_sw+0x6192>
 8002bfe:	95b1a223          	sw	s11,-1724(gp) # 200004a4 <mbedtls_mpi_write_string_fn>
 8002c02:	c0868393          	addi	t2,a3,-1016
 8002c06:	9481a423          	sw	s0,-1720(gp) # 200004a8 <mbedtls_rsa_check_privkey_fn>
 8002c0a:	91068293          	addi	t0,a3,-1776
 8002c0e:	9471a623          	sw	t2,-1716(gp) # 200004ac <mbedtls_rsa_check_pub_priv_fn>
 8002c12:	9451a823          	sw	t0,-1712(gp) # 200004b0 <mbedtls_rsa_check_pubkey_fn>
 8002c16:	13278f13          	addi	t5,a5,306
 8002c1a:	95f1aa23          	sw	t6,-1708(gp) # 200004b4 <mbedtls_rsa_complete_fn>
 8002c1e:	95e1ac23          	sw	t5,-1704(gp) # 200004b8 <mbedtls_rsa_copy_fn>
 8002c22:	82a68e13          	addi	t3,a3,-2006
 8002c26:	97d1a023          	sw	t4,-1696(gp) # 200004c0 <mbedtls_rsa_export_fn>
 8002c2a:	95c1ae23          	sw	t3,-1700(gp) # 200004bc <mbedtls_rsa_export_crt_fn>
 8002c2e:	0bf765b7          	lui	a1,0xbf76
 8002c32:	9661a223          	sw	t1,-1692(gp) # 200004c4 <mbedtls_rsa_export_raw_fn>
 8002c36:	23c58593          	addi	a1,a1,572 # bf7623c <mbedtls_mpi_mul_mpi_sw+0x7a5c>
 8002c3a:	9e268613          	addi	a2,a3,-1566
 8002c3e:	96b1a423          	sw	a1,-1688(gp) # 200004c8 <mbedtls_rsa_free_fn>
 8002c42:	4532                	lw	a0,12(sp)
 8002c44:	90c68c93          	addi	s9,a3,-1780
 8002c48:	96c1a623          	sw	a2,-1684(gp) # 200004cc <mbedtls_rsa_gen_key_fn>
 8002c4c:	9791a823          	sw	s9,-1680(gp) # 200004d0 <mbedtls_rsa_get_len_fn>
 8002c50:	0bf755b7          	lui	a1,0xbf75
 8002c54:	97a1aa23          	sw	s10,-1676(gp) # 200004d4 <mbedtls_rsa_import_fn>
 8002c58:	96a1ac23          	sw	a0,-1672(gp) # 200004d8 <mbedtls_rsa_import_raw_fn>
 8002c5c:	8d458513          	addi	a0,a1,-1836 # bf748d4 <mbedtls_mpi_mul_mpi_sw+0x60f4>
 8002c60:	96a1ae23          	sw	a0,-1668(gp) # 200004dc <mbedtls_rsa_init_fn>
 8002c64:	0bf76537          	lui	a0,0xbf76
 8002c68:	a3250413          	addi	s0,a0,-1486 # bf75a32 <mbedtls_mpi_mul_mpi_sw+0x7252>
 8002c6c:	9881a023          	sw	s0,-1664(gp) # 200004e0 <mbedtls_rsa_pkcs1_decrypt_fn>
 8002c70:	57458413          	addi	s0,a1,1396
 8002c74:	9881a223          	sw	s0,-1660(gp) # 200004e4 <mbedtls_rsa_pkcs1_encrypt_fn>
 8002c78:	d6450413          	addi	s0,a0,-668
 8002c7c:	9881a423          	sw	s0,-1656(gp) # 200004e8 <mbedtls_rsa_pkcs1_sign_fn>
 8002c80:	0d450513          	addi	a0,a0,212
 8002c84:	98a1a623          	sw	a0,-1652(gp) # 200004ec <mbedtls_rsa_pkcs1_verify_fn>
 8002c88:	c5068a93          	addi	s5,a3,-944
 8002c8c:	2ce58513          	addi	a0,a1,718
 8002c90:	98a1a823          	sw	a0,-1648(gp) # 200004f0 <mbedtls_rsa_private_fn>
 8002c94:	5a868a13          	addi	s4,a3,1448
 8002c98:	9951ac23          	sw	s5,-1640(gp) # 200004f8 <mbedtls_rsa_public_fn>
 8002c9c:	2e268993          	addi	s3,a3,738
 8002ca0:	9941ae23          	sw	s4,-1636(gp) # 200004fc <mbedtls_rsa_rsaes_oaep_decrypt_fn>
 8002ca4:	7da68913          	addi	s2,a3,2010
 8002ca8:	9b31a023          	sw	s3,-1632(gp) # 20000500 <mbedtls_rsa_rsaes_oaep_encrypt_fn>
 8002cac:	44868493          	addi	s1,a3,1096
 8002cb0:	9b21a223          	sw	s2,-1628(gp) # 20000504 <mbedtls_rsa_rsaes_pkcs1_v15_decrypt_fn>
 8002cb4:	c5678413          	addi	s0,a5,-938
 8002cb8:	9a91a423          	sw	s1,-1624(gp) # 20000508 <mbedtls_rsa_rsaes_pkcs1_v15_encrypt_fn>
 8002cbc:	fca78393          	addi	t2,a5,-54
 8002cc0:	9a81a623          	sw	s0,-1620(gp) # 2000050c <mbedtls_rsa_rsassa_pkcs1_v15_sign_fn>
 8002cc4:	a6c78293          	addi	t0,a5,-1428
 8002cc8:	9a71a823          	sw	t2,-1616(gp) # 20000510 <mbedtls_rsa_rsassa_pkcs1_v15_verify_fn>
 8002ccc:	faa78f93          	addi	t6,a5,-86
 8002cd0:	9a51aa23          	sw	t0,-1612(gp) # 20000514 <mbedtls_rsa_rsassa_pss_sign_fn>
 8002cd4:	d8278f13          	addi	t5,a5,-638
 8002cd8:	9bf1ae23          	sw	t6,-1604(gp) # 2000051c <mbedtls_rsa_rsassa_pss_verify_fn>
 8002cdc:	9be1ac23          	sw	t5,-1608(gp) # 20000518 <mbedtls_rsa_rsassa_pss_verify_ext_fn>
 8002ce0:	90268693          	addi	a3,a3,-1790
 8002ce4:	7b078e13          	addi	t3,a5,1968
 8002ce8:	9cd1a023          	sw	a3,-1600(gp) # 20000520 <mbedtls_rsa_set_padding_fn>
 8002cec:	86a70313          	addi	t1,a4,-1942
 8002cf0:	9dc1a223          	sw	t3,-1596(gp) # 20000524 <mbedtls_sha256_clone_fn>
 8002cf4:	84270893          	addi	a7,a4,-1982
 8002cf8:	9c61a423          	sw	t1,-1592(gp) # 20000528 <mbedtls_sha256_finish_fn>
 8002cfc:	79e78813          	addi	a6,a5,1950
 8002d00:	9d11a623          	sw	a7,-1588(gp) # 2000052c <mbedtls_sha256_finish_ret_fn>
 8002d04:	79a78513          	addi	a0,a5,1946
 8002d08:	9d01a823          	sw	a6,-1584(gp) # 20000530 <mbedtls_sha256_free_fn>
 8002d0c:	da858593          	addi	a1,a1,-600
 8002d10:	98b1aa23          	sw	a1,-1644(gp) # 200004f4 <mbedtls_rsa_private_sw_fn>
 8002d14:	9ca1aa23          	sw	a0,-1580(gp) # 20000534 <mbedtls_sha256_init_fn>
 8002d18:	7e278593          	addi	a1,a5,2018
 8002d1c:	7b878613          	addi	a2,a5,1976
 8002d20:	9cb1ac23          	sw	a1,-1576(gp) # 20000538 <mbedtls_sha256_starts_fn>
 8002d24:	9cc1ae23          	sw	a2,-1572(gp) # 2000053c <mbedtls_sha256_starts_ret_fn>
 8002d28:	81670713          	addi	a4,a4,-2026
 8002d2c:	9ee1a023          	sw	a4,-1568(gp) # 20000540 <mbedtls_sha256_update_fn>
 8002d30:	7e678793          	addi	a5,a5,2022
 8002d34:	9ef1a223          	sw	a5,-1564(gp) # 20000544 <mbedtls_sha256_update_ret_fn>
 8002d38:	0141                	addi	sp,sp,16
 8002d3a:	5600106f          	j	800429a <__riscv_restore_12>
 8002d3e:	07f00513          	li	a0,127
 8002d42:	03f5c097          	auipc	ra,0x3f5c
 8002d46:	ed0080e7          	jalr	-304(ra) # bf5ec12 <mbedtls_hwpka_flag_set>
 8002d4a:	0bf74737          	lui	a4,0xbf74
 8002d4e:	0bf715b7          	lui	a1,0xbf71
 8002d52:	a7c70313          	addi	t1,a4,-1412 # bf73a7c <mbedtls_mpi_mul_mpi_sw+0x529c>
 8002d56:	200008b7          	lui	a7,0x20000
 8002d5a:	39058293          	addi	t0,a1,912 # bf71390 <mbedtls_mpi_mul_mpi_sw+0x2bb0>
 8002d5e:	3668a823          	sw	t1,880(a7) # 20000370 <ecp_supported_curves>
 8002d62:	200008b7          	lui	a7,0x20000
 8002d66:	33e58393          	addi	t2,a1,830
 8002d6a:	3658aa23          	sw	t0,884(a7) # 20000374 <mbedtls_ecdsa_free_fn>
 8002d6e:	200008b7          	lui	a7,0x20000
 8002d72:	30058e93          	addi	t4,a1,768
 8002d76:	3678ac23          	sw	t2,888(a7) # 20000378 <mbedtls_ecdsa_from_keypair_fn>
 8002d7a:	200008b7          	lui	a7,0x20000
 8002d7e:	38c58e13          	addi	t3,a1,908
 8002d82:	37d8ae23          	sw	t4,892(a7) # 2000037c <mbedtls_ecdsa_genkey_fn>
 8002d86:	200008b7          	lui	a7,0x20000
 8002d8a:	2fa58313          	addi	t1,a1,762
 8002d8e:	39c8a023          	sw	t3,896(a7) # 20000380 <mbedtls_ecdsa_init_fn>
 8002d92:	200008b7          	lui	a7,0x20000
 8002d96:	25458293          	addi	t0,a1,596
 8002d9a:	3868a223          	sw	t1,900(a7) # 20000384 <mbedtls_ecdsa_read_signature_fn>
 8002d9e:	200008b7          	lui	a7,0x20000
 8002da2:	b6e58393          	addi	t2,a1,-1170
 8002da6:	3858a423          	sw	t0,904(a7) # 20000388 <mbedtls_ecdsa_read_signature_restartable_fn>
 8002daa:	200008b7          	lui	a7,0x20000
 8002dae:	f2e58e93          	addi	t4,a1,-210
 8002db2:	3878a823          	sw	t2,912(a7) # 20000390 <mbedtls_ecdsa_sign_fn>
 8002db6:	200008b7          	lui	a7,0x20000
 8002dba:	f3258e13          	addi	t3,a1,-206
 8002dbe:	39d8a623          	sw	t4,908(a7) # 2000038c <mbedtls_ecdsa_sign_det_fn>
 8002dc2:	200008b7          	lui	a7,0x20000
 8002dc6:	22458313          	addi	t1,a1,548
 8002dca:	39c8aa23          	sw	t3,916(a7) # 20000394 <mbedtls_ecdsa_verify_fn>
 8002dce:	200008b7          	lui	a7,0x20000
 8002dd2:	23458293          	addi	t0,a1,564
 8002dd6:	3868ae23          	sw	t1,924(a7) # 2000039c <mbedtls_ecdsa_write_signature_fn>
 8002dda:	200008b7          	lui	a7,0x20000
 8002dde:	0bf73637          	lui	a2,0xbf73
 8002de2:	3858ac23          	sw	t0,920(a7) # 20000398 <mbedtls_ecdsa_write_signature_det_fn>
 8002de6:	15e58593          	addi	a1,a1,350
 8002dea:	0bf726b7          	lui	a3,0xbf72
 8002dee:	a0e60f93          	addi	t6,a2,-1522 # bf72a0e <mbedtls_mpi_mul_mpi_sw+0x422e>
 8002df2:	84b1a023          	sw	a1,-1984(gp) # 200003a0 <mbedtls_ecdsa_write_signature_restartable_fn>
 8002df6:	f4268f13          	addi	t5,a3,-190 # bf71f42 <mbedtls_mpi_mul_mpi_sw+0x3762>
 8002dfa:	85f1a223          	sw	t6,-1980(gp) # 200003a4 <mbedtls_ecp_check_privkey_fn>
 8002dfe:	d4e68e93          	addi	t4,a3,-690
 8002e02:	85e1a823          	sw	t5,-1968(gp) # 200003b0 <mbedtls_ecp_copy_fn>
 8002e06:	daa68e13          	addi	t3,a3,-598
 8002e0a:	85d1aa23          	sw	t4,-1964(gp) # 200003b4 <mbedtls_ecp_curve_info_from_grp_id_fn>
 8002e0e:	d7a68313          	addi	t1,a3,-646
 8002e12:	85c1ac23          	sw	t3,-1960(gp) # 200003b8 <mbedtls_ecp_curve_info_from_name_fn>
 8002e16:	cda68893          	addi	a7,a3,-806
 8002e1a:	8461ae23          	sw	t1,-1956(gp) # 200003bc <mbedtls_ecp_curve_info_from_tls_id_fn>
 8002e1e:	f8068293          	addi	t0,a3,-128
 8002e22:	8711a023          	sw	a7,-1952(gp) # 200003c0 <mbedtls_ecp_curve_list_fn>
 8002e26:	e9c68f93          	addi	t6,a3,-356
 8002e2a:	8651aa23          	sw	t0,-1932(gp) # 200003d4 <mbedtls_ecp_group_copy_fn>
 8002e2e:	e1468f13          	addi	t5,a3,-492
 8002e32:	87f1ac23          	sw	t6,-1928(gp) # 200003d8 <mbedtls_ecp_group_free_fn>
 8002e36:	d0268e93          	addi	t4,a3,-766
 8002e3a:	87e1ae23          	sw	t5,-1924(gp) # 200003dc <mbedtls_ecp_group_init_fn>
 8002e3e:	6b468e13          	addi	t3,a3,1716
 8002e42:	89d1a023          	sw	t4,-1920(gp) # 200003e0 <mbedtls_ecp_grp_id_list_fn>
 8002e46:	f1c68313          	addi	t1,a3,-228
 8002e4a:	89c1a223          	sw	t3,-1916(gp) # 200003e4 <mbedtls_ecp_is_zero_fn>
 8002e4e:	c7860293          	addi	t0,a2,-904
 8002e52:	0bf77bb7          	lui	s7,0xbf77
 8002e56:	e7268893          	addi	a7,a3,-398
 8002e5a:	8861a423          	sw	t1,-1912(gp) # 200003e8 <mbedtls_ecp_keypair_free_fn>
 8002e5e:	8451a623          	sw	t0,-1972(gp) # 200003ac <mbedtls_ecp_check_pubkey_fn>
 8002e62:	7f260293          	addi	t0,a2,2034
 8002e66:	8911a623          	sw	a7,-1908(gp) # 200003ec <mbedtls_ecp_keypair_init_fn>
 8002e6a:	352b8e13          	addi	t3,s7,850 # bf77352 <mbedtls_mpi_mul_mpi_sw+0x8b72>
 8002e6e:	31cb8893          	addi	a7,s7,796
 8002e72:	8651a623          	sw	t0,-1940(gp) # 200003cc <mbedtls_ecp_gen_keypair_fn>
 8002e76:	20cb8b93          	addi	s7,s7,524
 8002e7a:	79660293          	addi	t0,a2,1942
 8002e7e:	8651a423          	sw	t0,-1944(gp) # 200003c8 <mbedtls_ecp_gen_keypair_base_fn>
 8002e82:	c65e                	sw	s7,12(sp)
 8002e84:	a8c60293          	addi	t0,a2,-1396
 8002e88:	84870c13          	addi	s8,a4,-1976
 8002e8c:	8651a823          	sw	t0,-1936(gp) # 200003d0 <mbedtls_ecp_gen_privkey_fn>
 8002e90:	79060d93          	addi	s11,a2,1936
 8002e94:	8581a423          	sw	s8,-1976(gp) # 200003a8 <mbedtls_ecp_check_pub_priv_fn>
 8002e98:	80270c13          	addi	s8,a4,-2046
 8002e9c:	8781a223          	sw	s8,-1948(gp) # 200003c4 <mbedtls_ecp_gen_key_fn>
 8002ea0:	ebc60c93          	addi	s9,a2,-324
 8002ea4:	89b1a823          	sw	s11,-1904(gp) # 200003f0 <mbedtls_ecp_mul_fn>
 8002ea8:	a5270c13          	addi	s8,a4,-1454
 8002eac:	8991aa23          	sw	s9,-1900(gp) # 200003f4 <mbedtls_ecp_mul_restartable_fn>
 8002eb0:	a3670b93          	addi	s7,a4,-1482
 8002eb4:	8981ac23          	sw	s8,-1896(gp) # 200003f8 <mbedtls_ecp_muladd_fn>
 8002eb8:	6ca68b13          	addi	s6,a3,1738
 8002ebc:	8971ae23          	sw	s7,-1892(gp) # 200003fc <mbedtls_ecp_muladd_restartable_fn>
 8002ec0:	e9468a93          	addi	s5,a3,-364
 8002ec4:	8b61a023          	sw	s6,-1888(gp) # 20000400 <mbedtls_ecp_point_cmp_fn>
 8002ec8:	df268a13          	addi	s4,a3,-526
 8002ecc:	8b51a223          	sw	s5,-1884(gp) # 20000404 <mbedtls_ecp_point_free_fn>
 8002ed0:	82460993          	addi	s3,a2,-2012
 8002ed4:	8b41a423          	sw	s4,-1880(gp) # 20000408 <mbedtls_ecp_point_init_fn>
 8002ed8:	71268913          	addi	s2,a3,1810
 8002edc:	8b31a623          	sw	s3,-1876(gp) # 2000040c <mbedtls_ecp_point_read_binary_fn>
 8002ee0:	75668493          	addi	s1,a3,1878
 8002ee4:	8b21a823          	sw	s2,-1872(gp) # 20000410 <mbedtls_ecp_point_read_string_fn>
 8002ee8:	8a91aa23          	sw	s1,-1868(gp) # 20000414 <mbedtls_ecp_point_write_binary_fn>
 8002eec:	f8668693          	addi	a3,a3,-122
 8002ef0:	99460413          	addi	s0,a2,-1644
 8002ef4:	8ad1ac23          	sw	a3,-1864(gp) # 20000418 <mbedtls_ecp_set_zero_fn>
 8002ef8:	92c60393          	addi	t2,a2,-1748
 8002efc:	8a81ae23          	sw	s0,-1860(gp) # 2000041c <mbedtls_ecp_tls_read_group_fn>
 8002f00:	8c260293          	addi	t0,a2,-1854
 8002f04:	8c71a023          	sw	t2,-1856(gp) # 20000420 <mbedtls_ecp_tls_read_group_id_fn>
 8002f08:	9b460f93          	addi	t6,a2,-1612
 8002f0c:	8c51a223          	sw	t0,-1852(gp) # 20000424 <mbedtls_ecp_tls_read_point_fn>
 8002f10:	0bf767b7          	lui	a5,0xbf76
 8002f14:	8df1a423          	sw	t6,-1848(gp) # 20000428 <mbedtls_ecp_tls_write_group_fn>
 8002f18:	8f660613          	addi	a2,a2,-1802
 8002f1c:	4d678f13          	addi	t5,a5,1238 # bf764d6 <mbedtls_mpi_mul_mpi_sw+0x7cf6>
 8002f20:	8cc1a623          	sw	a2,-1844(gp) # 2000042c <mbedtls_ecp_tls_write_point_fn>
 8002f24:	31278e93          	addi	t4,a5,786
 8002f28:	8de1a823          	sw	t5,-1840(gp) # 20000430 <mbedtls_internal_md5_process_fn>
 8002f2c:	8dd1aa23          	sw	t4,-1836(gp) # 20000434 <mbedtls_internal_sha256_process_fn>
 8002f30:	46878313          	addi	t1,a5,1128
 8002f34:	8fc1a223          	sw	t3,-1820(gp) # 20000444 <mbedtls_md5_fn>
 8002f38:	0bf77437          	lui	s0,0xbf77
 8002f3c:	8c61ac23          	sw	t1,-1832(gp) # 20000438 <mbedtls_md5_clone_fn>
 8002f40:	8d11ae23          	sw	a7,-1828(gp) # 2000043c <mbedtls_md5_finish_fn>
 8002f44:	21e40613          	addi	a2,s0,542 # bf7721e <mbedtls_mpi_mul_mpi_sw+0x8a3e>
 8002f48:	8ec1a023          	sw	a2,-1824(gp) # 20000440 <mbedtls_md5_finish_ret_fn>
 8002f4c:	0bf76637          	lui	a2,0xbf76
 8002f50:	45c60493          	addi	s1,a2,1116 # bf7645c <mbedtls_mpi_mul_mpi_sw+0x7c7c>
 8002f54:	8e91a423          	sw	s1,-1816(gp) # 20000448 <mbedtls_md5_free_fn>
 8002f58:	45260493          	addi	s1,a2,1106
 8002f5c:	8e91a623          	sw	s1,-1812(gp) # 2000044c <mbedtls_md5_init_fn>
 8002f60:	20840493          	addi	s1,s0,520
 8002f64:	8e91a823          	sw	s1,-1808(gp) # 20000450 <mbedtls_md5_process_fn>
 8002f68:	32040493          	addi	s1,s0,800
 8002f6c:	8e91aa23          	sw	s1,-1804(gp) # 20000454 <mbedtls_md5_ret_fn>
 8002f70:	4a460493          	addi	s1,a2,1188
 8002f74:	4bb2                	lw	s7,12(sp)
 8002f76:	8e91ac23          	sw	s1,-1800(gp) # 20000458 <mbedtls_md5_starts_fn>
 8002f7a:	47060493          	addi	s1,a2,1136
 8002f7e:	8e91ae23          	sw	s1,-1796(gp) # 2000045c <mbedtls_md5_starts_ret_fn>
 8002f82:	21640413          	addi	s0,s0,534
 8002f86:	9081a023          	sw	s0,-1792(gp) # 20000460 <mbedtls_md5_update_fn>
 8002f8a:	0bf6f437          	lui	s0,0xbf6f
 8002f8e:	0bf6f537          	lui	a0,0xbf6f
 8002f92:	9171a223          	sw	s7,-1788(gp) # 20000464 <mbedtls_md5_update_ret_fn>
 8002f96:	1c640493          	addi	s1,s0,454 # bf6f1c6 <mbedtls_mpi_mul_mpi_sw+0x9e6>
 8002f9a:	0bf70837          	lui	a6,0xbf70
 8002f9e:	9091a423          	sw	s1,-1784(gp) # 20000468 <mbedtls_mpi_div_int_fn>
 8002fa2:	50850d13          	addi	s10,a0,1288 # bf6f508 <mbedtls_mpi_mul_mpi_sw+0xd28>
 8002fa6:	cda40413          	addi	s0,s0,-806
 8002faa:	9081a623          	sw	s0,-1780(gp) # 2000046c <mbedtls_mpi_div_mpi_fn>
 8002fae:	e8680c93          	addi	s9,a6,-378 # bf6fe86 <mbedtls_mpi_mul_mpi_sw+0x16a6>
 8002fb2:	91a1aa23          	sw	s10,-1772(gp) # 20000474 <mbedtls_mpi_exp_mod_sw_fn>
 8002fb6:	c8e80c13          	addi	s8,a6,-882
 8002fba:	9191ac23          	sw	s9,-1768(gp) # 20000478 <mbedtls_mpi_fill_random_fn>
 8002fbe:	58480b93          	addi	s7,a6,1412
 8002fc2:	9181ae23          	sw	s8,-1764(gp) # 2000047c <mbedtls_mpi_gcd_fn>
 8002fc6:	1b480b13          	addi	s6,a6,436
 8002fca:	9371a023          	sw	s7,-1760(gp) # 20000480 <mbedtls_mpi_gen_prime_fn>
 8002fce:	57880a93          	addi	s5,a6,1400
 8002fd2:	9361a223          	sw	s6,-1756(gp) # 20000484 <mbedtls_mpi_inv_mod_fn>
 8002fd6:	9351a623          	sw	s5,-1748(gp) # 2000048c <mbedtls_mpi_is_prime_fn>
 8002fda:	4d680813          	addi	a6,a6,1238
 8002fde:	28c50a13          	addi	s4,a0,652
 8002fe2:	9301a423          	sw	a6,-1752(gp) # 20000488 <mbedtls_mpi_is_prime_ext_fn>
 8002fe6:	1f050993          	addi	s3,a0,496
 8002fea:	9341a823          	sw	s4,-1744(gp) # 20000490 <mbedtls_mpi_mod_int_fn>
 8002fee:	cc050913          	addi	s2,a0,-832
 8002ff2:	9331aa23          	sw	s3,-1740(gp) # 20000494 <mbedtls_mpi_mod_mpi_fn>
 8002ff6:	0bf70437          	lui	s0,0xbf70
 8002ffa:	a9250493          	addi	s1,a0,-1390
 8002ffe:	9321ac23          	sw	s2,-1736(gp) # 20000498 <mbedtls_mpi_mul_int_fn>
 8003002:	b1840413          	addi	s0,s0,-1256 # bf6fb18 <mbedtls_mpi_mul_mpi_sw+0x1338>
 8003006:	9081a823          	sw	s0,-1776(gp) # 20000470 <mbedtls_mpi_exp_mod_fn>
 800300a:	9291ae23          	sw	s1,-1732(gp) # 2000049c <mbedtls_mpi_mul_mpi_fn>
 800300e:	aa850413          	addi	s0,a0,-1368
 8003012:	9481a023          	sw	s0,-1728(gp) # 200004a0 <mbedtls_mpi_read_string_fn>
 8003016:	2c050513          	addi	a0,a0,704
 800301a:	53670393          	addi	t2,a4,1334
 800301e:	94a1a223          	sw	a0,-1724(gp) # 200004a4 <mbedtls_mpi_write_string_fn>
 8003022:	7cc70293          	addi	t0,a4,1996
 8003026:	9471a423          	sw	t2,-1720(gp) # 200004a8 <mbedtls_rsa_check_privkey_fn>
 800302a:	4d470f93          	addi	t6,a4,1236
 800302e:	9451a623          	sw	t0,-1716(gp) # 200004ac <mbedtls_rsa_check_pub_priv_fn>
 8003032:	05470f13          	addi	t5,a4,84
 8003036:	95f1a823          	sw	t6,-1712(gp) # 200004b0 <mbedtls_rsa_check_pubkey_fn>
 800303a:	cf678e93          	addi	t4,a5,-778
 800303e:	95e1aa23          	sw	t5,-1708(gp) # 200004b4 <mbedtls_rsa_complete_fn>
 8003042:	2ec70e13          	addi	t3,a4,748
 8003046:	95d1ac23          	sw	t4,-1704(gp) # 200004b8 <mbedtls_rsa_copy_fn>
 800304a:	3ee70313          	addi	t1,a4,1006
 800304e:	97c1a023          	sw	t3,-1696(gp) # 200004c0 <mbedtls_rsa_export_fn>
 8003052:	1b470893          	addi	a7,a4,436
 8003056:	9461ae23          	sw	t1,-1700(gp) # 200004bc <mbedtls_rsa_export_crt_fn>
 800305a:	e0078613          	addi	a2,a5,-512
 800305e:	9711a223          	sw	a7,-1692(gp) # 200004c4 <mbedtls_rsa_export_raw_fn>
 8003062:	5a670693          	addi	a3,a4,1446
 8003066:	96c1a423          	sw	a2,-1688(gp) # 200004c8 <mbedtls_rsa_free_fn>
 800306a:	0bf74537          	lui	a0,0xbf74
 800306e:	96d1a623          	sw	a3,-1684(gp) # 200004cc <mbedtls_rsa_gen_key_fn>
 8003072:	4d050413          	addi	s0,a0,1232 # bf744d0 <mbedtls_mpi_mul_mpi_sw+0x5cf0>
 8003076:	9681a823          	sw	s0,-1680(gp) # 200004d0 <mbedtls_rsa_get_len_fn>
 800307a:	f2850413          	addi	s0,a0,-216
 800307e:	9681aa23          	sw	s0,-1676(gp) # 200004d4 <mbedtls_rsa_import_fn>
 8003082:	fba50413          	addi	s0,a0,-70
 8003086:	9681ac23          	sw	s0,-1672(gp) # 200004d8 <mbedtls_rsa_import_raw_fn>
 800308a:	49850513          	addi	a0,a0,1176
 800308e:	96a1ae23          	sw	a0,-1668(gp) # 200004dc <mbedtls_rsa_init_fn>
 8003092:	0bf75537          	lui	a0,0xbf75
 8003096:	5f650413          	addi	s0,a0,1526 # bf755f6 <mbedtls_mpi_mul_mpi_sw+0x6e16>
 800309a:	9881a023          	sw	s0,-1664(gp) # 200004e0 <mbedtls_rsa_pkcs1_decrypt_fn>
 800309e:	0bf76637          	lui	a2,0xbf76
 80030a2:	13850413          	addi	s0,a0,312
 80030a6:	9881a223          	sw	s0,-1660(gp) # 200004e4 <mbedtls_rsa_pkcs1_encrypt_fn>
 80030aa:	92860413          	addi	s0,a2,-1752 # bf75928 <mbedtls_mpi_mul_mpi_sw+0x7148>
 80030ae:	0bf755b7          	lui	a1,0xbf75
 80030b2:	9881a423          	sw	s0,-1656(gp) # 200004e8 <mbedtls_rsa_pkcs1_sign_fn>
 80030b6:	c9860613          	addi	a2,a2,-872
 80030ba:	98c1a623          	sw	a2,-1652(gp) # 200004ec <mbedtls_rsa_pkcs1_verify_fn>
 80030be:	81458a93          	addi	s5,a1,-2028 # bf74814 <mbedtls_mpi_mul_mpi_sw+0x6034>
 80030c2:	e9250613          	addi	a2,a0,-366
 80030c6:	98c1a823          	sw	a2,-1648(gp) # 200004f0 <mbedtls_rsa_private_fn>
 80030ca:	16c58a13          	addi	s4,a1,364
 80030ce:	9951ac23          	sw	s5,-1640(gp) # 200004f8 <mbedtls_rsa_public_fn>
 80030d2:	ea658993          	addi	s3,a1,-346
 80030d6:	9941ae23          	sw	s4,-1636(gp) # 200004fc <mbedtls_rsa_rsaes_oaep_decrypt_fn>
 80030da:	39e58913          	addi	s2,a1,926
 80030de:	9b31a023          	sw	s3,-1632(gp) # 20000500 <mbedtls_rsa_rsaes_oaep_encrypt_fn>
 80030e2:	00c58493          	addi	s1,a1,12
 80030e6:	9b21a223          	sw	s2,-1628(gp) # 20000504 <mbedtls_rsa_rsaes_pkcs1_v15_decrypt_fn>
 80030ea:	81a78413          	addi	s0,a5,-2022
 80030ee:	9a91a423          	sw	s1,-1624(gp) # 20000508 <mbedtls_rsa_rsaes_pkcs1_v15_encrypt_fn>
 80030f2:	b8e78393          	addi	t2,a5,-1138
 80030f6:	9a81a623          	sw	s0,-1620(gp) # 2000050c <mbedtls_rsa_rsassa_pkcs1_v15_sign_fn>
 80030fa:	9a71a823          	sw	t2,-1616(gp) # 20000510 <mbedtls_rsa_rsassa_pkcs1_v15_verify_fn>
 80030fe:	63058593          	addi	a1,a1,1584
 8003102:	b6e78f93          	addi	t6,a5,-1170
 8003106:	9ab1aa23          	sw	a1,-1612(gp) # 20000514 <mbedtls_rsa_rsassa_pss_sign_fn>
 800310a:	94678f13          	addi	t5,a5,-1722
 800310e:	9bf1ae23          	sw	t6,-1604(gp) # 2000051c <mbedtls_rsa_rsassa_pss_verify_fn>
 8003112:	9be1ac23          	sw	t5,-1608(gp) # 20000518 <mbedtls_rsa_rsassa_pss_verify_ext_fn>
 8003116:	4c670713          	addi	a4,a4,1222
 800311a:	37478e93          	addi	t4,a5,884
 800311e:	9ce1a023          	sw	a4,-1600(gp) # 20000520 <mbedtls_rsa_set_padding_fn>
 8003122:	42e78e13          	addi	t3,a5,1070
 8003126:	9dd1a223          	sw	t4,-1596(gp) # 20000524 <mbedtls_sha256_clone_fn>
 800312a:	40678313          	addi	t1,a5,1030
 800312e:	9dc1a423          	sw	t3,-1592(gp) # 20000528 <mbedtls_sha256_finish_fn>
 8003132:	36278893          	addi	a7,a5,866
 8003136:	9c61a623          	sw	t1,-1588(gp) # 2000052c <mbedtls_sha256_finish_ret_fn>
 800313a:	35e78813          	addi	a6,a5,862
 800313e:	9d11a823          	sw	a7,-1584(gp) # 20000530 <mbedtls_sha256_free_fn>
 8003142:	96c50613          	addi	a2,a0,-1684
 8003146:	9d01aa23          	sw	a6,-1580(gp) # 20000534 <mbedtls_sha256_init_fn>
 800314a:	3a678513          	addi	a0,a5,934
 800314e:	98c1aa23          	sw	a2,-1644(gp) # 200004f4 <mbedtls_rsa_private_sw_fn>
 8003152:	9ca1ac23          	sw	a0,-1576(gp) # 20000538 <mbedtls_sha256_starts_fn>
 8003156:	37c78613          	addi	a2,a5,892
 800315a:	3da78693          	addi	a3,a5,986
 800315e:	9cc1ae23          	sw	a2,-1572(gp) # 2000053c <mbedtls_sha256_starts_ret_fn>
 8003162:	9ed1a023          	sw	a3,-1568(gp) # 20000540 <mbedtls_sha256_update_fn>
 8003166:	3aa78793          	addi	a5,a5,938
 800316a:	9ef1a223          	sw	a5,-1564(gp) # 20000544 <mbedtls_sha256_update_ret_fn>
 800316e:	0141                	addi	sp,sp,16
 8003170:	12a0106f          	j	800429a <__riscv_restore_12>

08003174 <_close>:
 8003174:	557d                	li	a0,-1
 8003176:	8082                	ret

08003178 <_fstat>:
 8003178:	557d                	li	a0,-1
 800317a:	8082                	ret

0800317c <_isatty>:
 800317c:	4501                	li	a0,0
 800317e:	8082                	ret

08003180 <_lseek>:
 8003180:	557d                	li	a0,-1
 8003182:	8082                	ret

08003184 <_read>:
 8003184:	557d                	li	a0,-1
 8003186:	8082                	ret

08003188 <system_clock_160m_40m_hxtal>:
 8003188:	400247b7          	lui	a5,0x40024
 800318c:	8007a703          	lw	a4,-2048(a5) # 40023800 <_sp+0x2001e500>
 8003190:	80000637          	lui	a2,0x80000
 8003194:	03000537          	lui	a0,0x3000
 8003198:	29c71713          	bseti	a4,a4,0x1c
 800319c:	80e7a023          	sw	a4,-2048(a5)
 80031a0:	8007a703          	lw	a4,-2048(a5)
 80031a4:	008006b7          	lui	a3,0x800
 80031a8:	29071713          	bseti	a4,a4,0x10
 80031ac:	80e7a023          	sw	a4,-2048(a5)
 80031b0:	8007a583          	lw	a1,-2048(a5)
 80031b4:	40024737          	lui	a4,0x40024
 80031b8:	8dd1                	or	a1,a1,a2
 80031ba:	80b7a023          	sw	a1,-2048(a5)
 80031be:	8087a603          	lw	a2,-2040(a5)
 80031c2:	80c7a423          	sw	a2,-2040(a5)
 80031c6:	8087a603          	lw	a2,-2040(a5)
 80031ca:	80c7a423          	sw	a2,-2040(a5)
 80031ce:	8087a583          	lw	a1,-2040(a5)
 80031d2:	28c59593          	bseti	a1,a1,0xc
 80031d6:	80b7a423          	sw	a1,-2040(a5)
 80031da:	8047a583          	lw	a1,-2044(a5)
 80031de:	28f59593          	bseti	a1,a1,0xf
 80031e2:	80b7a223          	sw	a1,-2044(a5)
 80031e6:	88a7aa23          	sw	a0,-1900(a5)
 80031ea:	8847a603          	lw	a2,-1916(a5)
 80031ee:	000845b7          	lui	a1,0x84
 80031f2:	8e49                	or	a2,a2,a0
 80031f4:	88c7a223          	sw	a2,-1916(a5)
 80031f8:	8847a603          	lw	a2,-1916(a5)
 80031fc:	29b61613          	bseti	a2,a2,0x1b
 8003200:	88c7a223          	sw	a2,-1916(a5)
 8003204:	88c7a603          	lw	a2,-1908(a5)
 8003208:	8e4d                	or	a2,a2,a1
 800320a:	88c7a623          	sw	a2,-1908(a5)
 800320e:	8007a603          	lw	a2,-2048(a5)
 8003212:	003005b7          	lui	a1,0x300
 8003216:	8e4d                	or	a2,a2,a1
 8003218:	80c7a023          	sw	a2,-2048(a5)
 800321c:	80072783          	lw	a5,-2048(a4) # 40023800 <_sp+0x2001e500>
 8003220:	8ff5                	and	a5,a5,a3
 8003222:	dfed                	beqz	a5,800321c <system_clock_160m_40m_hxtal+0x94>
 8003224:	80872783          	lw	a5,-2040(a4)
 8003228:	40024637          	lui	a2,0x40024
 800322c:	46a1                	li	a3,8
 800322e:	9bf1                	andi	a5,a5,-4
 8003230:	80f72423          	sw	a5,-2040(a4)
 8003234:	80872783          	lw	a5,-2040(a4)
 8003238:	0027e793          	ori	a5,a5,2
 800323c:	80f72423          	sw	a5,-2040(a4)
 8003240:	80862783          	lw	a5,-2040(a2) # 40023808 <_sp+0x2001e508>
 8003244:	8bb1                	andi	a5,a5,12
 8003246:	fed79de3          	bne	a5,a3,8003240 <system_clock_160m_40m_hxtal+0xb8>
 800324a:	8082                	ret

0800324c <SystemInit>:
 800324c:	042012ef          	jal	t0,800428e <__riscv_save_0>
 8003250:	400247b7          	lui	a5,0x40024
 8003254:	8007a703          	lw	a4,-2048(a5) # 40023800 <_sp+0x2001e500>
 8003258:	76b1                	lui	a3,0xfffec
 800325a:	16fd                	addi	a3,a3,-1
 800325c:	00176713          	ori	a4,a4,1
 8003260:	80e7a023          	sw	a4,-2048(a5)
 8003264:	8087a703          	lw	a4,-2040(a5)
 8003268:	9b71                	andi	a4,a4,-4
 800326a:	80e7a423          	sw	a4,-2040(a5)
 800326e:	8007a423          	sw	zero,-2040(a5)
 8003272:	88c7a703          	lw	a4,-1908(a5)
 8003276:	8f75                	and	a4,a4,a3
 8003278:	88e7a623          	sw	a4,-1908(a5)
 800327c:	8007a703          	lw	a4,-2048(a5)
 8003280:	ff8f06b7          	lui	a3,0xff8f0
 8003284:	16fd                	addi	a3,a3,-1
 8003286:	8f75                	and	a4,a4,a3
 8003288:	80e7a023          	sw	a4,-2048(a5)
 800328c:	8007a223          	sw	zero,-2044(a5)
 8003290:	8807a223          	sw	zero,-1916(a5)
 8003294:	07800737          	lui	a4,0x7800
 8003298:	88e7aa23          	sw	a4,-1900(a5)
 800329c:	8007a623          	sw	zero,-2036(a5)
 80032a0:	35e5                	jal	8003188 <system_clock_160m_40m_hxtal>
 80032a2:	d1001737          	lui	a4,0xd1001
 80032a6:	ff872783          	lw	a5,-8(a4) # d1000ff8 <_sp+0xb0ffbcf8>
 80032aa:	0047e793          	ori	a5,a5,4
 80032ae:	fef72c23          	sw	a5,-8(a4)
 80032b2:	47b5                	li	a5,13
 80032b4:	7cc79073          	csrw	ccm_mcommand,a5
 80032b8:	7fb0006f          	j	80042b2 <__riscv_restore_0>

080032bc <xmodem_inquiry.isra.0>:
 80032bc:	7d3002ef          	jal	t0,800428e <__riscv_save_0>
 80032c0:	4799                	li	a5,6
 80032c2:	842a                	mv	s0,a0
 80032c4:	00f50663          	beq	a0,a5,80032d0 <xmodem_inquiry.isra.0+0x14>
 80032c8:	3e800513          	li	a0,1000
 80032cc:	2b1000ef          	jal	ra,8003d7c <sys_udelay>
 80032d0:	8081a503          	lw	a0,-2040(gp) # 20000368 <xmodem_uart>
 80032d4:	60441593          	sext.b	a1,s0
 80032d8:	55d000ef          	jal	ra,8004034 <uart_putc>
 80032dc:	7d70006f          	j	80042b2 <__riscv_restore_0>

080032e0 <xmodem_led_init>:
 80032e0:	7af002ef          	jal	t0,800428e <__riscv_save_0>
 80032e4:	6405                	lui	s0,0x1
 80032e6:	c0140513          	addi	a0,s0,-1023 # c01 <__stack_size-0x3ff>
 80032ea:	e9bfe0ef          	jal	ra,8002184 <rcu_periph_clock_enable>
 80032ee:	80040693          	addi	a3,s0,-2048
 80032f2:	40020437          	lui	s0,0x40020
 80032f6:	40040513          	addi	a0,s0,1024 # 40020400 <_sp+0x2001b100>
 80032fa:	4601                	li	a2,0
 80032fc:	4585                	li	a1,1
 80032fe:	d89fe0ef          	jal	ra,8002086 <gpio_mode_set>
 8003302:	40040513          	addi	a0,s0,1024
 8003306:	6685                	lui	a3,0x1
 8003308:	4601                	li	a2,0
 800330a:	4585                	li	a1,1
 800330c:	d7bfe0ef          	jal	ra,8002086 <gpio_mode_set>
 8003310:	6689                	lui	a3,0x2
 8003312:	4601                	li	a2,0
 8003314:	4585                	li	a1,1
 8003316:	40040513          	addi	a0,s0,1024
 800331a:	d6dfe0ef          	jal	ra,8002086 <gpio_mode_set>
 800331e:	7950006f          	j	80042b2 <__riscv_restore_0>

08003322 <xmodem_led_on>:
 8003322:	76d002ef          	jal	t0,800428e <__riscv_save_0>
 8003326:	4785                	li	a5,1
 8003328:	00f51d63          	bne	a0,a5,8003342 <xmodem_led_on+0x20>
 800332c:	6585                	lui	a1,0x1
 800332e:	80058593          	addi	a1,a1,-2048 # 800 <__stack_size-0x800>
 8003332:	40020537          	lui	a0,0x40020
 8003336:	40050513          	addi	a0,a0,1024 # 40020400 <_sp+0x2001b100>
 800333a:	de3fe0ef          	jal	ra,800211c <gpio_bit_set>
 800333e:	7750006f          	j	80042b2 <__riscv_restore_0>
 8003342:	6585                	lui	a1,0x1
 8003344:	d57d                	beqz	a0,8003332 <xmodem_led_on+0x10>
 8003346:	4789                	li	a5,2
 8003348:	fef51be3          	bne	a0,a5,800333e <xmodem_led_on+0x1c>
 800334c:	6589                	lui	a1,0x2
 800334e:	b7d5                	j	8003332 <xmodem_led_on+0x10>

08003350 <xmodem_led_off>:
 8003350:	73f002ef          	jal	t0,800428e <__riscv_save_0>
 8003354:	4785                	li	a5,1
 8003356:	00f51d63          	bne	a0,a5,8003370 <xmodem_led_off+0x20>
 800335a:	6585                	lui	a1,0x1
 800335c:	80058593          	addi	a1,a1,-2048 # 800 <__stack_size-0x800>
 8003360:	40020537          	lui	a0,0x40020
 8003364:	40050513          	addi	a0,a0,1024 # 40020400 <_sp+0x2001b100>
 8003368:	db9fe0ef          	jal	ra,8002120 <gpio_bit_reset>
 800336c:	7470006f          	j	80042b2 <__riscv_restore_0>
 8003370:	6585                	lui	a1,0x1
 8003372:	d57d                	beqz	a0,8003360 <xmodem_led_off+0x10>
 8003374:	4789                	li	a5,2
 8003376:	fef51be3          	bne	a0,a5,800336c <xmodem_led_off+0x1c>
 800337a:	6589                	lui	a1,0x2
 800337c:	b7d5                	j	8003360 <xmodem_led_off+0x10>

0800337e <xmodem_gpio_deinit>:
 800337e:	711002ef          	jal	t0,800428e <__riscv_save_0>
 8003382:	40020537          	lui	a0,0x40020
 8003386:	cadfe0ef          	jal	ra,8002032 <gpio_deinit>
 800338a:	40020537          	lui	a0,0x40020
 800338e:	40050513          	addi	a0,a0,1024 # 40020400 <_sp+0x2001b100>
 8003392:	ca1fe0ef          	jal	ra,8002032 <gpio_deinit>
 8003396:	40021537          	lui	a0,0x40021
 800339a:	80050513          	addi	a0,a0,-2048 # 40020800 <_sp+0x2001b500>
 800339e:	c95fe0ef          	jal	ra,8002032 <gpio_deinit>
 80033a2:	7110006f          	j	80042b2 <__riscv_restore_0>

080033a6 <xmodem_start>:
 80033a6:	6b9002ef          	jal	t0,800425e <__riscv_save_12>
 80033aa:	715d                	addi	sp,sp,-80
 80033ac:	aaaab9b7          	lui	s3,0xaaaab
 80033b0:	8a2a                	mv	s4,a0
 80033b2:	aaa98993          	addi	s3,s3,-1366 # aaaaaaaa <_sp+0x8aaa57aa>
 80033b6:	1ad000ef          	jal	ra,8003d62 <systick_init>
 80033ba:	371d                	jal	80032e0 <xmodem_led_init>
 80033bc:	400204b7          	lui	s1,0x40020
 80033c0:	6589                	lui	a1,0x2
 80033c2:	40048513          	addi	a0,s1,1024 # 40020400 <_sp+0x2001b100>
 80033c6:	d5bfe0ef          	jal	ra,8002120 <gpio_bit_reset>
 80033ca:	4505                	li	a0,1
 80033cc:	3751                	jal	8003350 <xmodem_led_off>
 80033ce:	4501                	li	a0,0
 80033d0:	3f89                	jal	8003322 <xmodem_led_on>
 80033d2:	6571                	lui	a0,0x1c
 80033d4:	20050513          	addi	a0,a0,512 # 1c200 <__stack_size+0x1b200>
 80033d8:	3d3000ef          	jal	ra,8003faa <uart_config_all>
 80033dc:	8552                	mv	a0,s4
 80033de:	50f000ef          	jal	ra,80040ec <auto_detect_uart_internal>
 80033e2:	00055663          	bgez	a0,80033ee <xmodem_start+0x48>
 80033e6:	3f61                	jal	800337e <xmodem_gpio_deinit>
 80033e8:	6161                	addi	sp,sp,80
 80033ea:	6b10006f          	j	800429a <__riscv_restore_12>
 80033ee:	80a1a423          	sw	a0,-2040(gp) # 20000368 <xmodem_uart>
 80033f2:	4501                	li	a0,0
 80033f4:	3fb1                	jal	8003350 <xmodem_led_off>
 80033f6:	40048513          	addi	a0,s1,1024
 80033fa:	6589                	lui	a1,0x2
 80033fc:	d21fe0ef          	jal	ra,800211c <gpio_bit_set>
 8003400:	8081a503          	lw	a0,-2040(gp) # 20000368 <xmodem_uart>
 8003404:	07900593          	li	a1,121
 8003408:	004c54b7          	lui	s1,0x4c5
 800340c:	429000ef          	jal	ra,8004034 <uart_putc>
 8003410:	8081a503          	lw	a0,-2040(gp) # 20000368 <xmodem_uart>
 8003414:	b4048493          	addi	s1,s1,-1216 # 4c4b40 <__stack_size+0x4c3b40>
 8003418:	c826                	sw	s1,16(sp)
 800341a:	4add                	li	s5,23
 800341c:	489000ef          	jal	ra,80040a4 <uart_clean_rx>
 8003420:	c826                	sw	s1,16(sp)
 8003422:	02000913          	li	s2,32
 8003426:	07500b13          	li	s6,117
 800342a:	4b95                	li	s7,5
 800342c:	4c1d                	li	s8,7
 800342e:	a005                	j	800344e <xmodem_start+0xa8>
 8003430:	3ad000ef          	jal	ra,8003fdc <uart_readable>
 8003434:	cd09                	beqz	a0,800344e <xmodem_start+0xa8>
 8003436:	8081a503          	lw	a0,-2040(gp) # 20000368 <xmodem_uart>
 800343a:	3c9000ef          	jal	ra,8004002 <uart_getc>
 800343e:	11550363          	beq	a0,s5,8003544 <xmodem_start+0x19e>
 8003442:	02aac263          	blt	s5,a0,8003466 <xmodem_start+0xc0>
 8003446:	03750763          	beq	a0,s7,8003474 <xmodem_start+0xce>
 800344a:	09850463          	beq	a0,s8,80034d2 <xmodem_start+0x12c>
 800344e:	47c2                	lw	a5,16(sp)
 8003450:	8081a503          	lw	a0,-2040(gp) # 20000368 <xmodem_uart>
 8003454:	fff78713          	addi	a4,a5,-1
 8003458:	c83a                	sw	a4,16(sp)
 800345a:	fcf04be3          	bgtz	a5,8003430 <xmodem_start+0x8a>
 800345e:	65f1                	lui	a1,0x1c
 8003460:	20058593          	addi	a1,a1,512 # 1c200 <__stack_size+0x1b200>
 8003464:	a095                	j	80034c8 <xmodem_start+0x122>
 8003466:	13250f63          	beq	a0,s2,80035a4 <xmodem_start+0x1fe>
 800346a:	ff6512e3          	bne	a0,s6,800344e <xmodem_start+0xa8>
 800346e:	07900593          	li	a1,121
 8003472:	aa11                	j	8003586 <xmodem_start+0x1e0>
 8003474:	d802                	sw	zero,48(sp)
 8003476:	4901                	li	s2,0
 8003478:	4b11                	li	s6,4
 800347a:	8081a503          	lw	a0,-2040(gp) # 20000368 <xmodem_uart>
 800347e:	181c                	addi	a5,sp,48
 8003480:	8626                	mv	a2,s1
 8003482:	012785b3          	add	a1,a5,s2
 8003486:	3f7000ef          	jal	ra,800407c <uart_getc_with_timeout>
 800348a:	f971                	bnez	a0,800345e <xmodem_start+0xb8>
 800348c:	0905                	addi	s2,s2,1
 800348e:	ff6916e3          	bne	s2,s6,800347a <xmodem_start+0xd4>
 8003492:	03114903          	lbu	s2,49(sp)
 8003496:	03014783          	lbu	a5,48(sp)
 800349a:	8081a503          	lw	a0,-2040(gp) # 20000368 <xmodem_uart>
 800349e:	0922                	slli	s2,s2,0x8
 80034a0:	993e                	add	s2,s2,a5
 80034a2:	03214783          	lbu	a5,50(sp)
 80034a6:	4599                	li	a1,6
 80034a8:	07c2                	slli	a5,a5,0x10
 80034aa:	993e                	add	s2,s2,a5
 80034ac:	03314783          	lbu	a5,51(sp)
 80034b0:	07c2                	slli	a5,a5,0x10
 80034b2:	993e                	add	s2,s2,a5
 80034b4:	381000ef          	jal	ra,8004034 <uart_putc>
 80034b8:	8081a503          	lw	a0,-2040(gp) # 20000368 <xmodem_uart>
 80034bc:	65e1                	lui	a1,0x18
 80034be:	6a058593          	addi	a1,a1,1696 # 186a0 <__stack_size+0x176a0>
 80034c2:	3fb000ef          	jal	ra,80040bc <uart_wait_txcomplete>
 80034c6:	85ca                	mv	a1,s2
 80034c8:	8081a503          	lw	a0,-2040(gp) # 20000368 <xmodem_uart>
 80034cc:	14d000ef          	jal	ra,8003e18 <uart_config>
 80034d0:	bf81                	j	8003420 <xmodem_start+0x7a>
 80034d2:	8081a503          	lw	a0,-2040(gp) # 20000368 <xmodem_uart>
 80034d6:	8626                	mv	a2,s1
 80034d8:	180c                	addi	a1,sp,48
 80034da:	3a3000ef          	jal	ra,800407c <uart_getc_with_timeout>
 80034de:	f141                	bnez	a0,800345e <xmodem_start+0xb8>
 80034e0:	03014783          	lbu	a5,48(sp)
 80034e4:	8081a503          	lw	a0,-2040(gp) # 20000368 <xmodem_uart>
 80034e8:	200034b7          	lui	s1,0x20003
 80034ec:	07a2                	slli	a5,a5,0x8
 80034ee:	59448913          	addi	s2,s1,1428 # 20003594 <xmodem_ctrl>
 80034f2:	0791                	addi	a5,a5,4
 80034f4:	4599                	li	a1,6
 80034f6:	00f91223          	sh	a5,4(s2)
 80034fa:	33b000ef          	jal	ra,8004034 <uart_putc>
 80034fe:	4785                	li	a5,1
 8003500:	01000b37          	lui	s6,0x1000
 8003504:	00f91023          	sh	a5,0(s2)
 8003508:	59448493          	addi	s1,s1,1428
 800350c:	20003c37          	lui	s8,0x20003
 8003510:	1b7d                	addi	s6,s6,-1
 8003512:	20003cb7          	lui	s9,0x20003
 8003516:	08001bb7          	lui	s7,0x8001
 800351a:	8081a503          	lw	a0,-2040(gp) # 20000368 <xmodem_uart>
 800351e:	00262637          	lui	a2,0x262
 8003522:	4905                	li	s2,1
 8003524:	5a060613          	addi	a2,a2,1440 # 2625a0 <__stack_size+0x2615a0>
 8003528:	180c                	addi	a1,sp,48
 800352a:	01249123          	sh	s2,2(s1)
 800352e:	0004a423          	sw	zero,8(s1)
 8003532:	02010823          	sb	zero,48(sp)
 8003536:	347000ef          	jal	ra,800407c <uart_getc_with_timeout>
 800353a:	c151                	beqz	a0,80035be <xmodem_start+0x218>
 800353c:	0124a423          	sw	s2,8(s1)
 8003540:	4921                	li	s2,8
 8003542:	a855                	j	80035f6 <xmodem_start+0x250>
 8003544:	d84e                	sw	s3,48(sp)
 8003546:	da4e                	sw	s3,52(sp)
 8003548:	4901                	li	s2,0
 800354a:	4b19                	li	s6,6
 800354c:	8081a503          	lw	a0,-2040(gp) # 20000368 <xmodem_uart>
 8003550:	181c                	addi	a5,sp,48
 8003552:	8626                	mv	a2,s1
 8003554:	012785b3          	add	a1,a5,s2
 8003558:	325000ef          	jal	ra,800407c <uart_getc_with_timeout>
 800355c:	f00511e3          	bnez	a0,800345e <xmodem_start+0xb8>
 8003560:	0905                	addi	s2,s2,1
 8003562:	ff6915e3          	bne	s2,s6,800354c <xmodem_start+0x1a6>
 8003566:	03214783          	lbu	a5,50(sp)
 800356a:	03114703          	lbu	a4,49(sp)
 800356e:	03014683          	lbu	a3,48(sp)
 8003572:	07a2                	slli	a5,a5,0x8
 8003574:	97ba                	add	a5,a5,a4
 8003576:	03314703          	lbu	a4,51(sp)
 800357a:	0742                	slli	a4,a4,0x10
 800357c:	97ba                	add	a5,a5,a4
 800357e:	ca3e                	sw	a5,20(sp)
 8003580:	ca81                	beqz	a3,8003590 <xmodem_start+0x1ea>
 8003582:	2bc1                	jal	8003b52 <flash_erase_chip>
 8003584:	4599                	li	a1,6
 8003586:	8081a503          	lw	a0,-2040(gp) # 20000368 <xmodem_uart>
 800358a:	2ab000ef          	jal	ra,8004034 <uart_putc>
 800358e:	bd49                	j	8003420 <xmodem_start+0x7a>
 8003590:	03514583          	lbu	a1,53(sp)
 8003594:	03414783          	lbu	a5,52(sp)
 8003598:	4552                	lw	a0,20(sp)
 800359a:	05a2                	slli	a1,a1,0x8
 800359c:	95be                	add	a1,a1,a5
 800359e:	05b2                	slli	a1,a1,0xc
 80035a0:	2b99                	jal	8003af6 <flash_erase>
 80035a2:	b7cd                	j	8003584 <xmodem_start+0x1de>
 80035a4:	d802                	sw	zero,48(sp)
 80035a6:	400227b7          	lui	a5,0x40022
 80035aa:	1007a783          	lw	a5,256(a5) # 40022100 <_sp+0x2001ce00>
 80035ae:	8081a503          	lw	a0,-2040(gp) # 20000368 <xmodem_uart>
 80035b2:	4611                	li	a2,4
 80035b4:	180c                	addi	a1,sp,48
 80035b6:	d83e                	sw	a5,48(sp)
 80035b8:	29d000ef          	jal	ra,8004054 <uart_putdata>
 80035bc:	b595                	j	8003420 <xmodem_start+0x7a>
 80035be:	4711                	li	a4,4
 80035c0:	03010783          	lb	a5,48(sp)
 80035c4:	04e78a63          	beq	a5,a4,8003618 <xmodem_start+0x272>
 80035c8:	00f74a63          	blt	a4,a5,80035dc <xmodem_start+0x236>
 80035cc:	05278d63          	beq	a5,s2,8003626 <xmodem_start+0x280>
 80035d0:	4709                	li	a4,2
 80035d2:	06e78063          	beq	a5,a4,8003632 <xmodem_start+0x28c>
 80035d6:	4785                	li	a5,1
 80035d8:	c49c                	sw	a5,8(s1)
 80035da:	b79d                	j	8003540 <xmodem_start+0x19a>
 80035dc:	4761                	li	a4,24
 80035de:	00e78963          	beq	a5,a4,80035f0 <xmodem_start+0x24a>
 80035e2:	476d                	li	a4,27
 80035e4:	fee799e3          	bne	a5,a4,80035d6 <xmodem_start+0x230>
 80035e8:	0124a423          	sw	s2,8(s1)
 80035ec:	491d                	li	s2,7
 80035ee:	a021                	j	80035f6 <xmodem_start+0x250>
 80035f0:	0124a423          	sw	s2,8(s1)
 80035f4:	4909                	li	s2,2
 80035f6:	00131d37          	lui	s10,0x131
 80035fa:	2d0d0d13          	addi	s10,s10,720 # 1312d0 <__stack_size+0x1302d0>
 80035fe:	449c                	lw	a5,8(s1)
 8003600:	cf85                	beqz	a5,8003638 <xmodem_start+0x292>
 8003602:	4785                	li	a5,1
 8003604:	14f91663          	bne	s2,a5,8003750 <xmodem_start+0x3aa>
 8003608:	0004d783          	lhu	a5,0(s1)
 800360c:	0785                	addi	a5,a5,1
 800360e:	0ff7f793          	zext.b	a5,a5
 8003612:	00f49023          	sh	a5,0(s1)
 8003616:	b711                	j	800351a <xmodem_start+0x174>
 8003618:	4519                	li	a0,6
 800361a:	0124a423          	sw	s2,8(s1)
 800361e:	c9fff0ef          	jal	ra,80032bc <xmodem_inquiry.isra.0>
 8003622:	4915                	li	s2,5
 8003624:	bfc9                	j	80035f6 <xmodem_start+0x250>
 8003626:	08400793          	li	a5,132
 800362a:	00f49123          	sh	a5,2(s1)
 800362e:	4905                	li	s2,1
 8003630:	b7d9                	j	80035f6 <xmodem_start+0x250>
 8003632:	0044d783          	lhu	a5,4(s1)
 8003636:	bfd5                	j	800362a <xmodem_start+0x284>
 8003638:	8081a503          	lw	a0,-2040(gp) # 20000368 <xmodem_uart>
 800363c:	866a                	mv	a2,s10
 800363e:	104c                	addi	a1,sp,36
 8003640:	02010823          	sb	zero,48(sp)
 8003644:	239000ef          	jal	ra,800407c <uart_getc_with_timeout>
 8003648:	c509                	beqz	a0,8003652 <xmodem_start+0x2ac>
 800364a:	4785                	li	a5,1
 800364c:	c49c                	sw	a5,8(s1)
 800364e:	4921                	li	s2,8
 8003650:	b77d                	j	80035fe <xmodem_start+0x258>
 8003652:	8081a503          	lw	a0,-2040(gp) # 20000368 <xmodem_uart>
 8003656:	866a                	mv	a2,s10
 8003658:	102c                	addi	a1,sp,40
 800365a:	223000ef          	jal	ra,800407c <uart_getc_with_timeout>
 800365e:	f575                	bnez	a0,800364a <xmodem_start+0x2a4>
 8003660:	02414783          	lbu	a5,36(sp)
 8003664:	02814683          	lbu	a3,40(sp)
 8003668:	4905                	li	s2,1
 800366a:	fff7c713          	not	a4,a5
 800366e:	0ff77713          	zext.b	a4,a4
 8003672:	00e68363          	beq	a3,a4,8003678 <xmodem_start+0x2d2>
 8003676:	4911                	li	s2,4
 8003678:	0004d703          	lhu	a4,0(s1)
 800367c:	4d85                	li	s11,1
 800367e:	0807c6b3          	zext.h	a3,a5
 8003682:	00e7e663          	bltu	a5,a4,800368e <xmodem_start+0x2e8>
 8003686:	4d81                	li	s11,0
 8003688:	00e68363          	beq	a3,a4,800368e <xmodem_start+0x2e8>
 800368c:	4911                	li	s2,4
 800368e:	5a0c0593          	addi	a1,s8,1440 # 200035a0 <xmodem_ctrl+0xc>
 8003692:	4781                	li	a5,0
 8003694:	4a81                	li	s5,0
 8003696:	0024d703          	lhu	a4,2(s1)
 800369a:	8081a503          	lw	a0,-2040(gp) # 20000368 <xmodem_uart>
 800369e:	02e7e463          	bltu	a5,a4,80036c6 <xmodem_start+0x320>
 80036a2:	866a                	mv	a2,s10
 80036a4:	180c                	addi	a1,sp,48
 80036a6:	1d7000ef          	jal	ra,800407c <uart_getc_with_timeout>
 80036aa:	f145                	bnez	a0,800364a <xmodem_start+0x2a4>
 80036ac:	03010783          	lb	a5,48(sp)
 80036b0:	604a9a93          	sext.b	s5,s5
 80036b4:	03578963          	beq	a5,s5,80036e6 <xmodem_start+0x340>
 80036b8:	4555                	li	a0,21
 80036ba:	c03ff0ef          	jal	ra,80032bc <xmodem_inquiry.isra.0>
 80036be:	4785                	li	a5,1
 80036c0:	c49c                	sw	a5,8(s1)
 80036c2:	4911                	li	s2,4
 80036c4:	bf2d                	j	80035fe <xmodem_start+0x258>
 80036c6:	866a                	mv	a2,s10
 80036c8:	c63e                	sw	a5,12(sp)
 80036ca:	c42e                	sw	a1,8(sp)
 80036cc:	1b1000ef          	jal	ra,800407c <uart_getc_with_timeout>
 80036d0:	fd2d                	bnez	a0,800364a <xmodem_start+0x2a4>
 80036d2:	45a2                	lw	a1,8(sp)
 80036d4:	47b2                	lw	a5,12(sp)
 80036d6:	0005c703          	lbu	a4,0(a1)
 80036da:	0785                	addi	a5,a5,1
 80036dc:	0585                	addi	a1,a1,1
 80036de:	9aba                	add	s5,s5,a4
 80036e0:	080acab3          	zext.h	s5,s5
 80036e4:	bf4d                	j	8003696 <xmodem_start+0x2f0>
 80036e6:	020d9063          	bnez	s11,8003706 <xmodem_start+0x360>
 80036ea:	44c8                	lw	a0,12(s1)
 80036ec:	4721                	li	a4,8
 80036ee:	01855793          	srli	a5,a0,0x18
 80036f2:	02e79a63          	bne	a5,a4,8003726 <xmodem_start+0x380>
 80036f6:	0024d603          	lhu	a2,2(s1)
 80036fa:	5a4c8593          	addi	a1,s9,1444 # 200035a4 <xmodem_ctrl+0x10>
 80036fe:	01657533          	and	a0,a0,s6
 8003702:	1671                	addi	a2,a2,-4
 8003704:	2681                	jal	8003a44 <flash_write_fast>
 8003706:	8081a503          	lw	a0,-2040(gp) # 20000368 <xmodem_uart>
 800370a:	19b000ef          	jal	ra,80040a4 <uart_clean_rx>
 800370e:	4785                	li	a5,1
 8003710:	02f91c63          	bne	s2,a5,8003748 <xmodem_start+0x3a2>
 8003714:	000d8363          	beqz	s11,800371a <xmodem_start+0x374>
 8003718:	4911                	li	s2,4
 800371a:	4785                	li	a5,1
 800371c:	4519                	li	a0,6
 800371e:	c49c                	sw	a5,8(s1)
 8003720:	b9dff0ef          	jal	ra,80032bc <xmodem_inquiry.isra.0>
 8003724:	bde9                	j	80035fe <xmodem_start+0x258>
 8003726:	02000713          	li	a4,32
 800372a:	fce79ee3          	bne	a5,a4,8003706 <xmodem_start+0x360>
 800372e:	8726                	mv	a4,s1
 8003730:	4781                	li	a5,0
 8003732:	40000693          	li	a3,1024
 8003736:	4b0c                	lw	a1,16(a4)
 8003738:	00a78633          	add	a2,a5,a0
 800373c:	0791                	addi	a5,a5,4
 800373e:	c20c                	sw	a1,0(a2)
 8003740:	0711                	addi	a4,a4,4
 8003742:	fed79ae3          	bne	a5,a3,8003736 <xmodem_start+0x390>
 8003746:	b7c1                	j	8003706 <xmodem_start+0x360>
 8003748:	4791                	li	a5,4
 800374a:	eaf91ae3          	bne	s2,a5,80035fe <xmodem_start+0x258>
 800374e:	b7ad                	j	80036b8 <xmodem_start+0x312>
 8003750:	1971                	addi	s2,s2,-4
 8003752:	4791                	li	a5,4
 8003754:	0327ed63          	bltu	a5,s2,800378e <xmodem_start+0x3e8>
 8003758:	654b8793          	addi	a5,s7,1620 # 8001654 <_sicode+0x388>
 800375c:	20f94933          	sh2add	s2,s2,a5
 8003760:	00092783          	lw	a5,0(s2)
 8003764:	8782                	jr	a5
 8003766:	8081a503          	lw	a0,-2040(gp) # 20000368 <xmodem_uart>
 800376a:	13b000ef          	jal	ra,80040a4 <uart_clean_rx>
 800376e:	4555                	li	a0,21
 8003770:	b4dff0ef          	jal	ra,80032bc <xmodem_inquiry.isra.0>
 8003774:	4505                	li	a0,1
 8003776:	badff0ef          	jal	ra,8003322 <xmodem_led_on>
 800377a:	000f4537          	lui	a0,0xf4
 800377e:	24050513          	addi	a0,a0,576 # f4240 <__stack_size+0xf3240>
 8003782:	5fa000ef          	jal	ra,8003d7c <sys_udelay>
 8003786:	4505                	li	a0,1
 8003788:	bc9ff0ef          	jal	ra,8003350 <xmodem_led_off>
 800378c:	b905                	j	80033bc <xmodem_start+0x16>
 800378e:	4561                	li	a0,24
 8003790:	b7c5                	j	8003770 <xmodem_start+0x3ca>
 8003792:	001e8937          	lui	s2,0x1e8
 8003796:	48090913          	addi	s2,s2,1152 # 1e8480 <__stack_size+0x1e7480>
 800379a:	004c5ab7          	lui	s5,0x4c5
 800379e:	cc4a                	sw	s2,24(sp)
 80037a0:	b40a8a93          	addi	s5,s5,-1216 # 4c4b40 <__stack_size+0x4c3b40>
 80037a4:	02100493          	li	s1,33
 80037a8:	02200b93          	li	s7,34
 80037ac:	a831                	j	80037c8 <xmodem_start+0x422>
 80037ae:	8081a503          	lw	a0,-2040(gp) # 20000368 <xmodem_uart>
 80037b2:	02b000ef          	jal	ra,8003fdc <uart_readable>
 80037b6:	c909                	beqz	a0,80037c8 <xmodem_start+0x422>
 80037b8:	8081a503          	lw	a0,-2040(gp) # 20000368 <xmodem_uart>
 80037bc:	047000ef          	jal	ra,8004002 <uart_getc>
 80037c0:	00950a63          	beq	a0,s1,80037d4 <xmodem_start+0x42e>
 80037c4:	15750a63          	beq	a0,s7,8003918 <xmodem_start+0x572>
 80037c8:	47e2                	lw	a5,24(sp)
 80037ca:	fff78713          	addi	a4,a5,-1
 80037ce:	cc3a                	sw	a4,24(sp)
 80037d0:	fff9                	bnez	a5,80037ae <xmodem_start+0x408>
 80037d2:	b74d                	j	8003774 <xmodem_start+0x3ce>
 80037d4:	d402                	sw	zero,40(sp)
 80037d6:	d602                	sw	zero,44(sp)
 80037d8:	4481                	li	s1,0
 80037da:	4b9d                	li	s7,7
 80037dc:	8081a503          	lw	a0,-2040(gp) # 20000368 <xmodem_uart>
 80037e0:	103c                	addi	a5,sp,40
 80037e2:	8656                	mv	a2,s5
 80037e4:	009785b3          	add	a1,a5,s1
 80037e8:	095000ef          	jal	ra,800407c <uart_getc_with_timeout>
 80037ec:	f541                	bnez	a0,8003774 <xmodem_start+0x3ce>
 80037ee:	0485                	addi	s1,s1,1
 80037f0:	ff7496e3          	bne	s1,s7,80037dc <xmodem_start+0x436>
 80037f4:	02914783          	lbu	a5,41(sp)
 80037f8:	02814703          	lbu	a4,40(sp)
 80037fc:	02c14483          	lbu	s1,44(sp)
 8003800:	07a2                	slli	a5,a5,0x8
 8003802:	97ba                	add	a5,a5,a4
 8003804:	02a14703          	lbu	a4,42(sp)
 8003808:	04a2                	slli	s1,s1,0x8
 800380a:	02e14c03          	lbu	s8,46(sp)
 800380e:	0742                	slli	a4,a4,0x10
 8003810:	97ba                	add	a5,a5,a4
 8003812:	ce3e                	sw	a5,28(sp)
 8003814:	02b14783          	lbu	a5,43(sp)
 8003818:	4bf2                	lw	s7,28(sp)
 800381a:	94be                	add	s1,s1,a5
 800381c:	02d14783          	lbu	a5,45(sp)
 8003820:	07c2                	slli	a5,a5,0x10
 8003822:	94be                	add	s1,s1,a5
 8003824:	9ba6                	add	s7,s7,s1
 8003826:	2281                	jal	8003966 <flash_total_size>
 8003828:	f57566e3          	bltu	a0,s7,8003774 <xmodem_start+0x3ce>
 800382c:	3ff00613          	li	a2,1023
 8003830:	4581                	li	a1,0
 8003832:	4501                	li	a0,0
 8003834:	0034fb93          	andi	s7,s1,3
 8003838:	2e3d                	jal	8003b76 <flash_nodec_config>
 800383a:	41748cb3          	sub	s9,s1,s7
 800383e:	060c1563          	bnez	s8,80038a8 <xmodem_start+0x502>
 8003842:	d202                	sw	zero,36(sp)
 8003844:	4781                	li	a5,0
 8003846:	080006b7          	lui	a3,0x8000
 800384a:	0597e463          	bltu	a5,s9,8003892 <xmodem_start+0x4ec>
 800384e:	020b8563          	beqz	s7,8003878 <xmodem_start+0x4d2>
 8003852:	4772                	lw	a4,28(sp)
 8003854:	97ba                	add	a5,a5,a4
 8003856:	08000737          	lui	a4,0x8000
 800385a:	97ba                	add	a5,a5,a4
 800385c:	439c                	lw	a5,0(a5)
 800385e:	d03e                	sw	a5,32(sp)
 8003860:	5702                	lw	a4,32(sp)
 8003862:	4791                	li	a5,4
 8003864:	417787b3          	sub	a5,a5,s7
 8003868:	078e                	slli	a5,a5,0x3
 800386a:	00f71733          	sll	a4,a4,a5
 800386e:	00f757b3          	srl	a5,a4,a5
 8003872:	5712                	lw	a4,36(sp)
 8003874:	97ba                	add	a5,a5,a4
 8003876:	d23e                	sw	a5,36(sp)
 8003878:	8081a503          	lw	a0,-2040(gp) # 20000368 <xmodem_uart>
 800387c:	4611                	li	a2,4
 800387e:	104c                	addi	a1,sp,36
 8003880:	7d4000ef          	jal	ra,8004054 <uart_putdata>
 8003884:	4601                	li	a2,0
 8003886:	3ff00593          	li	a1,1023
 800388a:	4501                	li	a0,0
 800388c:	24ed                	jal	8003b76 <flash_nodec_config>
 800388e:	cc4a                	sw	s2,24(sp)
 8003890:	bf11                	j	80037a4 <xmodem_start+0x3fe>
 8003892:	4772                	lw	a4,28(sp)
 8003894:	973e                	add	a4,a4,a5
 8003896:	9736                	add	a4,a4,a3
 8003898:	4318                	lw	a4,0(a4)
 800389a:	0791                	addi	a5,a5,4
 800389c:	d03a                	sw	a4,32(sp)
 800389e:	5602                	lw	a2,32(sp)
 80038a0:	5712                	lw	a4,36(sp)
 80038a2:	9732                	add	a4,a4,a2
 80038a4:	d23a                	sw	a4,36(sp)
 80038a6:	b755                	j	800384a <xmodem_start+0x4a4>
 80038a8:	4785                	li	a5,1
 80038aa:	04fc1163          	bne	s8,a5,80038ec <xmodem_start+0x546>
 80038ae:	2cf5                	jal	8003baa <crc_data_register_reset>
 80038b0:	4572                	lw	a0,28(sp)
 80038b2:	08000c37          	lui	s8,0x8000
 80038b6:	0024d593          	srli	a1,s1,0x2
 80038ba:	9562                	add	a0,a0,s8
 80038bc:	2619                	jal	8003bc2 <crc_block_data_calculate>
 80038be:	d22a                	sw	a0,36(sp)
 80038c0:	fa0b8ce3          	beqz	s7,8003878 <xmodem_start+0x4d2>
 80038c4:	47f2                	lw	a5,28(sp)
 80038c6:	9cbe                	add	s9,s9,a5
 80038c8:	9c66                	add	s8,s8,s9
 80038ca:	000c2783          	lw	a5,0(s8) # 8000000 <compat_prefix>
 80038ce:	d03e                	sw	a5,32(sp)
 80038d0:	5702                	lw	a4,32(sp)
 80038d2:	4791                	li	a5,4
 80038d4:	417787b3          	sub	a5,a5,s7
 80038d8:	078e                	slli	a5,a5,0x3
 80038da:	00f71733          	sll	a4,a4,a5
 80038de:	00f757b3          	srl	a5,a4,a5
 80038e2:	d03e                	sw	a5,32(sp)
 80038e4:	5502                	lw	a0,32(sp)
 80038e6:	2cc9                	jal	8003bb8 <crc_single_data_calculate>
 80038e8:	d22a                	sw	a0,36(sp)
 80038ea:	b779                	j	8003878 <xmodem_start+0x4d2>
 80038ec:	4789                	li	a5,2
 80038ee:	00fc1f63          	bne	s8,a5,800390c <xmodem_start+0x566>
 80038f2:	4572                	lw	a0,28(sp)
 80038f4:	080007b7          	lui	a5,0x8000
 80038f8:	1810                	addi	a2,sp,48
 80038fa:	85a6                	mv	a1,s1
 80038fc:	953e                	add	a0,a0,a5
 80038fe:	2989                	jal	8003d50 <hau_hash_sha_256>
 8003900:	8081a503          	lw	a0,-2040(gp) # 20000368 <xmodem_uart>
 8003904:	02000613          	li	a2,32
 8003908:	180c                	addi	a1,sp,48
 800390a:	bf9d                	j	8003880 <xmodem_start+0x4da>
 800390c:	8081a503          	lw	a0,-2040(gp) # 20000368 <xmodem_uart>
 8003910:	45d5                	li	a1,21
 8003912:	722000ef          	jal	ra,8004034 <uart_putc>
 8003916:	bdb9                	j	8003774 <xmodem_start+0x3ce>
 8003918:	8081a503          	lw	a0,-2040(gp) # 20000368 <xmodem_uart>
 800391c:	004c5637          	lui	a2,0x4c5
 8003920:	b4060613          	addi	a2,a2,-1216 # 4c4b40 <__stack_size+0x4c3b40>
 8003924:	180c                	addi	a1,sp,48
 8003926:	756000ef          	jal	ra,800407c <uart_getc_with_timeout>
 800392a:	e40515e3          	bnez	a0,8003774 <xmodem_start+0x3ce>
 800392e:	03014703          	lbu	a4,48(sp)
 8003932:	4785                	li	a5,1
 8003934:	e4f710e3          	bne	a4,a5,8003774 <xmodem_start+0x3ce>
 8003938:	8081a503          	lw	a0,-2040(gp) # 20000368 <xmodem_uart>
 800393c:	4599                	li	a1,6
 800393e:	6f6000ef          	jal	ra,8004034 <uart_putc>
 8003942:	40020537          	lui	a0,0x40020
 8003946:	6589                	lui	a1,0x2
 8003948:	40050513          	addi	a0,a0,1024 # 40020400 <_sp+0x2001b100>
 800394c:	fd4fe0ef          	jal	ra,8002120 <gpio_bit_reset>
 8003950:	a2fff0ef          	jal	ra,800337e <xmodem_gpio_deinit>
 8003954:	800017b7          	lui	a5,0x80001
 8003958:	d1001737          	lui	a4,0xd1001
 800395c:	a5f78793          	addi	a5,a5,-1441 # 80000a5f <_sp+0x5fffb75f>
 8003960:	fef72823          	sw	a5,-16(a4) # d1000ff0 <_sp+0xb0ffbcf0>
 8003964:	a001                	j	8003964 <xmodem_start+0x5be>

08003966 <flash_total_size>:
 8003966:	00400537          	lui	a0,0x400
 800396a:	8082                	ret

0800396c <flash_write>:
 800396c:	109002ef          	jal	t0,8004274 <__riscv_save_4>
 8003970:	1141                	addi	sp,sp,-16
 8003972:	57fd                	li	a5,-1
 8003974:	c63e                	sw	a5,12(sp)
 8003976:	00400737          	lui	a4,0x400
 800397a:	0ce57363          	bgeu	a0,a4,8003a40 <flash_write+0xd4>
 800397e:	892a                	mv	s2,a0
 8003980:	84ae                	mv	s1,a1
 8003982:	557d                	li	a0,-1
 8003984:	c5d1                	beqz	a1,8003a10 <flash_write+0xa4>
 8003986:	8432                	mv	s0,a2
 8003988:	08c05463          	blez	a2,8003a10 <flash_write+0xa4>
 800398c:	012607b3          	add	a5,a2,s2
 8003990:	17fd                	addi	a5,a5,-1
 8003992:	06e7ff63          	bgeu	a5,a4,8003a10 <flash_write+0xa4>
 8003996:	bf6fe0ef          	jal	ra,8001d8c <fmc_unlock>
 800399a:	03000513          	li	a0,48
 800399e:	e8cfe0ef          	jal	ra,800202a <fmc_flag_clear>
 80039a2:	00397513          	andi	a0,s2,3
 80039a6:	ffc97993          	andi	s3,s2,-4
 80039aa:	cd15                	beqz	a0,80039e6 <flash_write+0x7a>
 80039ac:	4911                	li	s2,4
 80039ae:	007c                	addi	a5,sp,12
 80039b0:	40a90933          	sub	s2,s2,a0
 80039b4:	85a6                	mv	a1,s1
 80039b6:	953e                	add	a0,a0,a5
 80039b8:	0a894933          	min	s2,s2,s0
 80039bc:	864a                	mv	a2,s2
 80039be:	19d000ef          	jal	ra,800435a <memcpy>
 80039c2:	45b2                	lw	a1,12(sp)
 80039c4:	08000537          	lui	a0,0x8000
 80039c8:	954e                	add	a0,a0,s3
 80039ca:	cc6fe0ef          	jal	ra,8001e90 <fmc_word_program>
 80039ce:	85aa                	mv	a1,a0
 80039d0:	c519                	beqz	a0,80039de <flash_write+0x72>
 80039d2:	08001537          	lui	a0,0x8001
 80039d6:	66850513          	addi	a0,a0,1640 # 8001668 <_sicode+0x39c>
 80039da:	305000ef          	jal	ra,80044de <iprintf>
 80039de:	0991                	addi	s3,s3,4
 80039e0:	94ca                	add	s1,s1,s2
 80039e2:	41240433          	sub	s0,s0,s2
 80039e6:	490d                	li	s2,3
 80039e8:	08000a37          	lui	s4,0x8000
 80039ec:	08001ab7          	lui	s5,0x8001
 80039f0:	02894363          	blt	s2,s0,8003a16 <flash_write+0xaa>
 80039f4:	00805b63          	blez	s0,8003a0a <flash_write+0x9e>
 80039f8:	9426                	add	s0,s0,s1
 80039fa:	55fd                	li	a1,-1
 80039fc:	02849c63          	bne	s1,s0,8003a34 <flash_write+0xc8>
 8003a00:	08000537          	lui	a0,0x8000
 8003a04:	954e                	add	a0,a0,s3
 8003a06:	c8afe0ef          	jal	ra,8001e90 <fmc_word_program>
 8003a0a:	ba4fe0ef          	jal	ra,8001dae <fmc_lock>
 8003a0e:	4501                	li	a0,0
 8003a10:	0141                	addi	sp,sp,16
 8003a12:	0970006f          	j	80042a8 <__riscv_restore_4>
 8003a16:	408c                	lw	a1,0(s1)
 8003a18:	01498533          	add	a0,s3,s4
 8003a1c:	c74fe0ef          	jal	ra,8001e90 <fmc_word_program>
 8003a20:	85aa                	mv	a1,a0
 8003a22:	c509                	beqz	a0,8003a2c <flash_write+0xc0>
 8003a24:	668a8513          	addi	a0,s5,1640 # 8001668 <_sicode+0x39c>
 8003a28:	2b7000ef          	jal	ra,80044de <iprintf>
 8003a2c:	0991                	addi	s3,s3,4
 8003a2e:	0491                	addi	s1,s1,4
 8003a30:	1471                	addi	s0,s0,-4
 8003a32:	bf7d                	j	80039f0 <flash_write+0x84>
 8003a34:	fff44783          	lbu	a5,-1(s0)
 8003a38:	05a2                	slli	a1,a1,0x8
 8003a3a:	147d                	addi	s0,s0,-1
 8003a3c:	8ddd                	or	a1,a1,a5
 8003a3e:	bf7d                	j	80039fc <flash_write+0x90>
 8003a40:	557d                	li	a0,-1
 8003a42:	b7f9                	j	8003a10 <flash_write+0xa4>

08003a44 <flash_write_fast>:
 8003a44:	031002ef          	jal	t0,8004274 <__riscv_save_4>
 8003a48:	004007b7          	lui	a5,0x400
 8003a4c:	547d                	li	s0,-1
 8003a4e:	04f57663          	bgeu	a0,a5,8003a9a <flash_write_fast+0x56>
 8003a52:	8a2e                	mv	s4,a1
 8003a54:	547d                	li	s0,-1
 8003a56:	c1b1                	beqz	a1,8003a9a <flash_write_fast+0x56>
 8003a58:	84b2                	mv	s1,a2
 8003a5a:	04c05063          	blez	a2,8003a9a <flash_write_fast+0x56>
 8003a5e:	00a60ab3          	add	s5,a2,a0
 8003a62:	fffa8713          	addi	a4,s5,-1
 8003a66:	89aa                	mv	s3,a0
 8003a68:	02f77963          	bgeu	a4,a5,8003a9a <flash_write_fast+0x56>
 8003a6c:	4711                	li	a4,4
 8003a6e:	00c74663          	blt	a4,a2,8003a7a <flash_write_fast+0x36>
 8003a72:	efbff0ef          	jal	ra,800396c <flash_write>
 8003a76:	842a                	mv	s0,a0
 8003a78:	a00d                	j	8003a9a <flash_write_fast+0x56>
 8003a7a:	00357913          	andi	s2,a0,3
 8003a7e:	4791                	li	a5,4
 8003a80:	41278933          	sub	s2,a5,s2
 8003a84:	0ff97913          	zext.b	s2,s2
 8003a88:	0ff57b13          	zext.b	s6,a0
 8003a8c:	00e90a63          	beq	s2,a4,8003aa0 <flash_write_fast+0x5c>
 8003a90:	864a                	mv	a2,s2
 8003a92:	edbff0ef          	jal	ra,800396c <flash_write>
 8003a96:	842a                	mv	s0,a0
 8003a98:	c509                	beqz	a0,8003aa2 <flash_write_fast+0x5e>
 8003a9a:	8522                	mv	a0,s0
 8003a9c:	00d0006f          	j	80042a8 <__riscv_restore_4>
 8003aa0:	4901                	li	s2,0
 8003aa2:	aeafe0ef          	jal	ra,8001d8c <fmc_unlock>
 8003aa6:	03000513          	li	a0,48
 8003aaa:	d80fe0ef          	jal	ra,800202a <fmc_flag_clear>
 8003aae:	9b26                	add	s6,s6,s1
 8003ab0:	08000537          	lui	a0,0x8000
 8003ab4:	003b7b13          	andi	s6,s6,3
 8003ab8:	41248633          	sub	a2,s1,s2
 8003abc:	954e                	add	a0,a0,s3
 8003abe:	41660633          	sub	a2,a2,s6
 8003ac2:	954a                	add	a0,a0,s2
 8003ac4:	214945b3          	sh2add	a1,s2,s4
 8003ac8:	c2efe0ef          	jal	ra,8001ef6 <fmc_continuous_program>
 8003acc:	842a                	mv	s0,a0
 8003ace:	c901                	beqz	a0,8003ade <flash_write_fast+0x9a>
 8003ad0:	85aa                	mv	a1,a0
 8003ad2:	08001537          	lui	a0,0x8001
 8003ad6:	68450513          	addi	a0,a0,1668 # 8001684 <_sicode+0x3b8>
 8003ada:	205000ef          	jal	ra,80044de <iprintf>
 8003ade:	ad0fe0ef          	jal	ra,8001dae <fmc_lock>
 8003ae2:	fa0b0ce3          	beqz	s6,8003a9a <flash_write_fast+0x56>
 8003ae6:	416484b3          	sub	s1,s1,s6
 8003aea:	865a                	mv	a2,s6
 8003aec:	009a05b3          	add	a1,s4,s1
 8003af0:	416a8533          	sub	a0,s5,s6
 8003af4:	bfbd                	j	8003a72 <flash_write_fast+0x2e>

08003af6 <flash_erase>:
 8003af6:	004006b7          	lui	a3,0x400
 8003afa:	04d57863          	bgeu	a0,a3,8003b4a <flash_erase+0x54>
 8003afe:	790002ef          	jal	t0,800428e <__riscv_save_0>
 8003b02:	87aa                	mv	a5,a0
 8003b04:	84ae                	mv	s1,a1
 8003b06:	557d                	li	a0,-1
 8003b08:	02b05f63          	blez	a1,8003b46 <flash_erase+0x50>
 8003b0c:	00f58733          	add	a4,a1,a5
 8003b10:	177d                	addi	a4,a4,-1
 8003b12:	02d77a63          	bgeu	a4,a3,8003b46 <flash_erase+0x50>
 8003b16:	747d                	lui	s0,0xfffff
 8003b18:	8fe1                	and	a5,a5,s0
 8003b1a:	08000437          	lui	s0,0x8000
 8003b1e:	943e                	add	s0,s0,a5
 8003b20:	a6cfe0ef          	jal	ra,8001d8c <fmc_unlock>
 8003b24:	03000513          	li	a0,48
 8003b28:	d02fe0ef          	jal	ra,800202a <fmc_flag_clear>
 8003b2c:	6905                	lui	s2,0x1
 8003b2e:	8522                	mv	a0,s0
 8003b30:	a8cfe0ef          	jal	ra,8001dbc <fmc_page_erase>
 8003b34:	ed09                	bnez	a0,8003b4e <flash_erase+0x58>
 8003b36:	412484b3          	sub	s1,s1,s2
 8003b3a:	944a                	add	s0,s0,s2
 8003b3c:	fe9049e3          	bgtz	s1,8003b2e <flash_erase+0x38>
 8003b40:	a6efe0ef          	jal	ra,8001dae <fmc_lock>
 8003b44:	4501                	li	a0,0
 8003b46:	76c0006f          	j	80042b2 <__riscv_restore_0>
 8003b4a:	557d                	li	a0,-1
 8003b4c:	8082                	ret
 8003b4e:	5579                	li	a0,-2
 8003b50:	bfdd                	j	8003b46 <flash_erase+0x50>

08003b52 <flash_erase_chip>:
 8003b52:	73c002ef          	jal	t0,800428e <__riscv_save_0>
 8003b56:	1141                	addi	sp,sp,-16
 8003b58:	a34fe0ef          	jal	ra,8001d8c <fmc_unlock>
 8003b5c:	03000513          	li	a0,48
 8003b60:	ccafe0ef          	jal	ra,800202a <fmc_flag_clear>
 8003b64:	ac4fe0ef          	jal	ra,8001e28 <fmc_mass_erase>
 8003b68:	c62a                	sw	a0,12(sp)
 8003b6a:	a44fe0ef          	jal	ra,8001dae <fmc_lock>
 8003b6e:	4532                	lw	a0,12(sp)
 8003b70:	0141                	addi	sp,sp,16
 8003b72:	7400006f          	j	80042b2 <__riscv_restore_0>

08003b76 <flash_nodec_config>:
 8003b76:	718002ef          	jal	t0,800428e <__riscv_save_0>
 8003b7a:	1141                	addi	sp,sp,-16
 8003b7c:	842e                	mv	s0,a1
 8003b7e:	84aa                	mv	s1,a0
 8003b80:	c632                	sw	a2,12(sp)
 8003b82:	a0afe0ef          	jal	ra,8001d8c <fmc_unlock>
 8003b86:	bccfe0ef          	jal	ra,8001f52 <ob_unlock>
 8003b8a:	03000513          	li	a0,48
 8003b8e:	c9cfe0ef          	jal	ra,800202a <fmc_flag_clear>
 8003b92:	45b2                	lw	a1,12(sp)
 8003b94:	8626                	mv	a2,s1
 8003b96:	8522                	mv	a0,s0
 8003b98:	beafe0ef          	jal	ra,8001f82 <fmc_no_rtdec_config>
 8003b9c:	bd8fe0ef          	jal	ra,8001f74 <ob_lock>
 8003ba0:	a0efe0ef          	jal	ra,8001dae <fmc_lock>
 8003ba4:	0141                	addi	sp,sp,16
 8003ba6:	70c0006f          	j	80042b2 <__riscv_restore_0>

08003baa <crc_data_register_reset>:
 8003baa:	40023737          	lui	a4,0x40023
 8003bae:	471c                	lw	a5,8(a4)
 8003bb0:	0017e793          	ori	a5,a5,1
 8003bb4:	c71c                	sw	a5,8(a4)
 8003bb6:	8082                	ret

08003bb8 <crc_single_data_calculate>:
 8003bb8:	400237b7          	lui	a5,0x40023
 8003bbc:	c388                	sw	a0,0(a5)
 8003bbe:	4388                	lw	a0,0(a5)
 8003bc0:	8082                	ret

08003bc2 <crc_block_data_calculate>:
 8003bc2:	4781                	li	a5,0
 8003bc4:	40023737          	lui	a4,0x40023
 8003bc8:	00b79663          	bne	a5,a1,8003bd4 <crc_block_data_calculate+0x12>
 8003bcc:	400237b7          	lui	a5,0x40023
 8003bd0:	4388                	lw	a0,0(a5)
 8003bd2:	8082                	ret
 8003bd4:	20a7c6b3          	sh2add	a3,a5,a0
 8003bd8:	4294                	lw	a3,0(a3)
 8003bda:	0785                	addi	a5,a5,1
 8003bdc:	c314                	sw	a3,0(a4)
 8003bde:	b7ed                	j	8003bc8 <crc_block_data_calculate+0x6>

08003be0 <hau_sha_md5_digest_read>:
 8003be0:	6ae002ef          	jal	t0,800428e <__riscv_save_0>
 8003be4:	000407b7          	lui	a5,0x40
 8003be8:	1101                	addi	sp,sp,-32
 8003bea:	842e                	mv	s0,a1
 8003bec:	08f50a63          	beq	a0,a5,8003c80 <hau_sha_md5_digest_read+0xa0>
 8003bf0:	00a7ea63          	bltu	a5,a0,8003c04 <hau_sha_md5_digest_read+0x24>
 8003bf4:	cd39                	beqz	a0,8003c52 <hau_sha_md5_digest_read+0x72>
 8003bf6:	08000793          	li	a5,128
 8003bfa:	0cf50263          	beq	a0,a5,8003cbe <hau_sha_md5_digest_read+0xde>
 8003bfe:	6105                	addi	sp,sp,32
 8003c00:	6b20006f          	j	80042b2 <__riscv_restore_0>
 8003c04:	08078793          	addi	a5,a5,128 # 40080 <__stack_size+0x3f080>
 8003c08:	fef51be3          	bne	a0,a5,8003bfe <hau_sha_md5_digest_read+0x1e>
 8003c0c:	850a                	mv	a0,sp
 8003c0e:	2bc5                	jal	80041fe <hau_digest_read>
 8003c10:	4782                	lw	a5,0(sp)
 8003c12:	6987d793          	rev8	a5,a5
 8003c16:	c01c                	sw	a5,0(s0)
 8003c18:	4792                	lw	a5,4(sp)
 8003c1a:	6987d793          	rev8	a5,a5
 8003c1e:	c05c                	sw	a5,4(s0)
 8003c20:	47a2                	lw	a5,8(sp)
 8003c22:	6987d793          	rev8	a5,a5
 8003c26:	c41c                	sw	a5,8(s0)
 8003c28:	47b2                	lw	a5,12(sp)
 8003c2a:	6987d793          	rev8	a5,a5
 8003c2e:	c45c                	sw	a5,12(s0)
 8003c30:	47c2                	lw	a5,16(sp)
 8003c32:	6987d793          	rev8	a5,a5
 8003c36:	c81c                	sw	a5,16(s0)
 8003c38:	47d2                	lw	a5,20(sp)
 8003c3a:	6987d793          	rev8	a5,a5
 8003c3e:	c85c                	sw	a5,20(s0)
 8003c40:	47e2                	lw	a5,24(sp)
 8003c42:	6987d793          	rev8	a5,a5
 8003c46:	cc1c                	sw	a5,24(s0)
 8003c48:	47f2                	lw	a5,28(sp)
 8003c4a:	6987d793          	rev8	a5,a5
 8003c4e:	cc5c                	sw	a5,28(s0)
 8003c50:	b77d                	j	8003bfe <hau_sha_md5_digest_read+0x1e>
 8003c52:	850a                	mv	a0,sp
 8003c54:	236d                	jal	80041fe <hau_digest_read>
 8003c56:	4782                	lw	a5,0(sp)
 8003c58:	6987d793          	rev8	a5,a5
 8003c5c:	c01c                	sw	a5,0(s0)
 8003c5e:	4792                	lw	a5,4(sp)
 8003c60:	6987d793          	rev8	a5,a5
 8003c64:	c05c                	sw	a5,4(s0)
 8003c66:	47a2                	lw	a5,8(sp)
 8003c68:	6987d793          	rev8	a5,a5
 8003c6c:	c41c                	sw	a5,8(s0)
 8003c6e:	47b2                	lw	a5,12(sp)
 8003c70:	6987d793          	rev8	a5,a5
 8003c74:	c45c                	sw	a5,12(s0)
 8003c76:	47c2                	lw	a5,16(sp)
 8003c78:	6987d793          	rev8	a5,a5
 8003c7c:	c81c                	sw	a5,16(s0)
 8003c7e:	b741                	j	8003bfe <hau_sha_md5_digest_read+0x1e>
 8003c80:	850a                	mv	a0,sp
 8003c82:	2bb5                	jal	80041fe <hau_digest_read>
 8003c84:	4782                	lw	a5,0(sp)
 8003c86:	6987d793          	rev8	a5,a5
 8003c8a:	c01c                	sw	a5,0(s0)
 8003c8c:	4792                	lw	a5,4(sp)
 8003c8e:	6987d793          	rev8	a5,a5
 8003c92:	c05c                	sw	a5,4(s0)
 8003c94:	47a2                	lw	a5,8(sp)
 8003c96:	6987d793          	rev8	a5,a5
 8003c9a:	c41c                	sw	a5,8(s0)
 8003c9c:	47b2                	lw	a5,12(sp)
 8003c9e:	6987d793          	rev8	a5,a5
 8003ca2:	c45c                	sw	a5,12(s0)
 8003ca4:	47c2                	lw	a5,16(sp)
 8003ca6:	6987d793          	rev8	a5,a5
 8003caa:	c81c                	sw	a5,16(s0)
 8003cac:	47d2                	lw	a5,20(sp)
 8003cae:	6987d793          	rev8	a5,a5
 8003cb2:	c85c                	sw	a5,20(s0)
 8003cb4:	47e2                	lw	a5,24(sp)
 8003cb6:	6987d793          	rev8	a5,a5
 8003cba:	cc1c                	sw	a5,24(s0)
 8003cbc:	b789                	j	8003bfe <hau_sha_md5_digest_read+0x1e>
 8003cbe:	850a                	mv	a0,sp
 8003cc0:	2b3d                	jal	80041fe <hau_digest_read>
 8003cc2:	4782                	lw	a5,0(sp)
 8003cc4:	6987d793          	rev8	a5,a5
 8003cc8:	c01c                	sw	a5,0(s0)
 8003cca:	4792                	lw	a5,4(sp)
 8003ccc:	6987d793          	rev8	a5,a5
 8003cd0:	c05c                	sw	a5,4(s0)
 8003cd2:	47a2                	lw	a5,8(sp)
 8003cd4:	6987d793          	rev8	a5,a5
 8003cd8:	c41c                	sw	a5,8(s0)
 8003cda:	47b2                	lw	a5,12(sp)
 8003cdc:	6987d793          	rev8	a5,a5
 8003ce0:	c45c                	sw	a5,12(s0)
 8003ce2:	bf31                	j	8003bfe <hau_sha_md5_digest_read+0x1e>

08003ce4 <hau_hash_calculate>:
 8003ce4:	590002ef          	jal	t0,8004274 <__riscv_save_4>
 8003ce8:	1101                	addi	sp,sp,-32
 8003cea:	00367793          	andi	a5,a2,3
 8003cee:	c402                	sw	zero,8(sp)
 8003cf0:	078e                	slli	a5,a5,0x3
 8003cf2:	c602                	sw	zero,12(sp)
 8003cf4:	842a                	mv	s0,a0
 8003cf6:	8a2e                	mv	s4,a1
 8003cf8:	84b2                	mv	s1,a2
 8003cfa:	89b6                	mv	s3,a3
 8003cfc:	c43e                	sw	a5,8(sp)
 8003cfe:	299d                	jal	8004174 <hau_deinit>
 8003d00:	02000793          	li	a5,32
 8003d04:	0808                	addi	a0,sp,16
 8003d06:	cc3e                	sw	a5,24(sp)
 8003d08:	c822                	sw	s0,16(sp)
 8003d0a:	ca02                	sw	zero,20(sp)
 8003d0c:	29bd                	jal	800418a <hau_init>
 8003d0e:	4522                	lw	a0,8(sp)
 8003d10:	4901                	li	s2,0
 8003d12:	21e9                	jal	80041dc <hau_last_word_validbits_num_config>
 8003d14:	02996463          	bltu	s2,s1,8003d3c <hau_hash_calculate+0x58>
 8003d18:	2b11                	jal	800422c <hau_digest_calculation_enable>
 8003d1a:	64c1                	lui	s1,0x10
 8003d1c:	4521                	li	a0,8
 8003d1e:	2305                	jal	800423e <hau_flag_get>
 8003d20:	4732                	lw	a4,12(sp)
 8003d22:	87aa                	mv	a5,a0
 8003d24:	0705                	addi	a4,a4,1
 8003d26:	c63a                	sw	a4,12(sp)
 8003d28:	4732                	lw	a4,12(sp)
 8003d2a:	00970f63          	beq	a4,s1,8003d48 <hau_hash_calculate+0x64>
 8003d2e:	f57d                	bnez	a0,8003d1c <hau_hash_calculate+0x38>
 8003d30:	8522                	mv	a0,s0
 8003d32:	85ce                	mv	a1,s3
 8003d34:	eadff0ef          	jal	ra,8003be0 <hau_sha_md5_digest_read>
 8003d38:	4505                	li	a0,1
 8003d3a:	a809                	j	8003d4c <hau_hash_calculate+0x68>
 8003d3c:	012a07b3          	add	a5,s4,s2
 8003d40:	4388                	lw	a0,0(a5)
 8003d42:	0911                	addi	s2,s2,4
 8003d44:	2945                	jal	80041f4 <hau_data_write>
 8003d46:	b7f9                	j	8003d14 <hau_hash_calculate+0x30>
 8003d48:	4501                	li	a0,0
 8003d4a:	d3fd                	beqz	a5,8003d30 <hau_hash_calculate+0x4c>
 8003d4c:	6105                	addi	sp,sp,32
 8003d4e:	aba9                	j	80042a8 <__riscv_restore_4>

08003d50 <hau_hash_sha_256>:
 8003d50:	86b2                	mv	a3,a2
 8003d52:	862e                	mv	a2,a1
 8003d54:	85aa                	mv	a1,a0
 8003d56:	00040537          	lui	a0,0x40
 8003d5a:	08050513          	addi	a0,a0,128 # 40080 <__stack_size+0x3f080>
 8003d5e:	f87ff06f          	j	8003ce4 <hau_hash_calculate>

08003d62 <systick_init>:
 8003d62:	200007b7          	lui	a5,0x20000
 8003d66:	3647a783          	lw	a5,868(a5) # 20000364 <SystemCoreClock>
 8003d6a:	000f4737          	lui	a4,0xf4
 8003d6e:	24070713          	addi	a4,a4,576 # f4240 <__stack_size+0xf3240>
 8003d72:	02e7d7b3          	divu	a5,a5,a4
 8003d76:	9ef1a423          	sw	a5,-1560(gp) # 20000548 <clock_us_factor>
 8003d7a:	8082                	ret

08003d7c <sys_udelay>:
 8003d7c:	d10007b7          	lui	a5,0xd1000
 8003d80:	7179                	addi	sp,sp,-48
 8003d82:	00478713          	addi	a4,a5,4 # d1000004 <_sp+0xb0ffad04>
 8003d86:	4314                	lw	a3,0(a4)
 8003d88:	c636                	sw	a3,12(sp)
 8003d8a:	4394                	lw	a3,0(a5)
 8003d8c:	c836                	sw	a3,16(sp)
 8003d8e:	4318                	lw	a4,0(a4)
 8003d90:	ca3a                	sw	a4,20(sp)
 8003d92:	46b2                	lw	a3,12(sp)
 8003d94:	4752                	lw	a4,20(sp)
 8003d96:	00e68463          	beq	a3,a4,8003d9e <sys_udelay+0x22>
 8003d9a:	439c                	lw	a5,0(a5)
 8003d9c:	c83e                	sw	a5,16(sp)
 8003d9e:	46d2                	lw	a3,20(sp)
 8003da0:	4642                	lw	a2,16(sp)
 8003da2:	d10007b7          	lui	a5,0xd1000
 8003da6:	00478713          	addi	a4,a5,4 # d1000004 <_sp+0xb0ffad04>
 8003daa:	430c                	lw	a1,0(a4)
 8003dac:	cc2e                	sw	a1,24(sp)
 8003dae:	438c                	lw	a1,0(a5)
 8003db0:	ce2e                	sw	a1,28(sp)
 8003db2:	430c                	lw	a1,0(a4)
 8003db4:	d02e                	sw	a1,32(sp)
 8003db6:	4862                	lw	a6,24(sp)
 8003db8:	5582                	lw	a1,32(sp)
 8003dba:	00b80463          	beq	a6,a1,8003dc2 <sys_udelay+0x46>
 8003dbe:	438c                	lw	a1,0(a5)
 8003dc0:	ce2e                	sw	a1,28(sp)
 8003dc2:	5582                	lw	a1,32(sp)
 8003dc4:	4872                	lw	a6,28(sp)
 8003dc6:	01061463          	bne	a2,a6,8003dce <sys_udelay+0x52>
 8003dca:	feb680e3          	beq	a3,a1,8003daa <sys_udelay+0x2e>
 8003dce:	9e81a783          	lw	a5,-1560(gp) # 20000548 <clock_us_factor>
 8003dd2:	d10006b7          	lui	a3,0xd1000
 8003dd6:	4301                	li	t1,0
 8003dd8:	02f50533          	mul	a0,a0,a5
 8003ddc:	00468893          	addi	a7,a3,4 # d1000004 <_sp+0xb0ffad04>
 8003de0:	0008a783          	lw	a5,0(a7)
 8003de4:	d23e                	sw	a5,36(sp)
 8003de6:	429c                	lw	a5,0(a3)
 8003de8:	d43e                	sw	a5,40(sp)
 8003dea:	0008a783          	lw	a5,0(a7)
 8003dee:	d63e                	sw	a5,44(sp)
 8003df0:	5712                	lw	a4,36(sp)
 8003df2:	57b2                	lw	a5,44(sp)
 8003df4:	00f70463          	beq	a4,a5,8003dfc <sys_udelay+0x80>
 8003df8:	429c                	lw	a5,0(a3)
 8003dfa:	d43e                	sw	a5,40(sp)
 8003dfc:	57b2                	lw	a5,44(sp)
 8003dfe:	5722                	lw	a4,40(sp)
 8003e00:	8f8d                	sub	a5,a5,a1
 8003e02:	41070633          	sub	a2,a4,a6
 8003e06:	00c73733          	sltu	a4,a4,a2
 8003e0a:	8f99                	sub	a5,a5,a4
 8003e0c:	00f31463          	bne	t1,a5,8003e14 <sys_udelay+0x98>
 8003e10:	fca668e3          	bltu	a2,a0,8003de0 <sys_udelay+0x64>
 8003e14:	6145                	addi	sp,sp,48
 8003e16:	8082                	ret

08003e18 <uart_config>:
 8003e18:	476002ef          	jal	t0,800428e <__riscv_save_0>
 8003e1c:	400117b7          	lui	a5,0x40011
 8003e20:	842a                	mv	s0,a0
 8003e22:	84ae                	mv	s1,a1
 8003e24:	08f51f63          	bne	a0,a5,8003ec2 <uart_config+0xaa>
 8003e28:	6905                	lui	s2,0x1
 8003e2a:	10490513          	addi	a0,s2,260 # 1104 <__stack_size+0x104>
 8003e2e:	b56fe0ef          	jal	ra,8002184 <rcu_periph_clock_enable>
 8003e32:	c0090513          	addi	a0,s2,-1024
 8003e36:	b4efe0ef          	jal	ra,8002184 <rcu_periph_clock_enable>
 8003e3a:	04000613          	li	a2,64
 8003e3e:	45a9                	li	a1,10
 8003e40:	40020537          	lui	a0,0x40020
 8003e44:	ae0fe0ef          	jal	ra,8002124 <gpio_af_set>
 8003e48:	08000613          	li	a2,128
 8003e4c:	45a1                	li	a1,8
 8003e4e:	40020537          	lui	a0,0x40020
 8003e52:	ad2fe0ef          	jal	ra,8002124 <gpio_af_set>
 8003e56:	04000693          	li	a3,64
 8003e5a:	4601                	li	a2,0
 8003e5c:	4589                	li	a1,2
 8003e5e:	40020537          	lui	a0,0x40020
 8003e62:	a24fe0ef          	jal	ra,8002086 <gpio_mode_set>
 8003e66:	04000693          	li	a3,64
 8003e6a:	4609                	li	a2,2
 8003e6c:	4581                	li	a1,0
 8003e6e:	40020537          	lui	a0,0x40020
 8003e72:	a62fe0ef          	jal	ra,80020d4 <gpio_output_options_set>
 8003e76:	08000693          	li	a3,128
 8003e7a:	4601                	li	a2,0
 8003e7c:	4589                	li	a1,2
 8003e7e:	40020537          	lui	a0,0x40020
 8003e82:	a04fe0ef          	jal	ra,8002086 <gpio_mode_set>
 8003e86:	08000693          	li	a3,128
 8003e8a:	4609                	li	a2,2
 8003e8c:	4581                	li	a1,0
 8003e8e:	40020537          	lui	a0,0x40020
 8003e92:	a42fe0ef          	jal	ra,80020d4 <gpio_output_options_set>
 8003e96:	8522                	mv	a0,s0
 8003e98:	caefe0ef          	jal	ra,8002346 <usart_deinit>
 8003e9c:	85a6                	mv	a1,s1
 8003e9e:	8522                	mv	a0,s0
 8003ea0:	d04fe0ef          	jal	ra,80023a4 <usart_baudrate_set>
 8003ea4:	4591                	li	a1,4
 8003ea6:	8522                	mv	a0,s0
 8003ea8:	d8afe0ef          	jal	ra,8002432 <usart_receive_config>
 8003eac:	45a1                	li	a1,8
 8003eae:	8522                	mv	a0,s0
 8003eb0:	d74fe0ef          	jal	ra,8002424 <usart_transmit_config>
 8003eb4:	8522                	mv	a0,s0
 8003eb6:	d9afe0ef          	jal	ra,8002450 <usart_receive_fifo_enable>
 8003eba:	8522                	mv	a0,s0
 8003ebc:	d5efe0ef          	jal	ra,800241a <usart_enable>
 8003ec0:	aecd                	j	80042b2 <__riscv_restore_0>
 8003ec2:	400047b7          	lui	a5,0x40004
 8003ec6:	40078793          	addi	a5,a5,1024 # 40004400 <_sp+0x1ffff100>
 8003eca:	06f51163          	bne	a0,a5,8003f2c <uart_config+0x114>
 8003ece:	6905                	lui	s2,0x1
 8003ed0:	c0090513          	addi	a0,s2,-1024 # c00 <__stack_size-0x400>
 8003ed4:	ab0fe0ef          	jal	ra,8002184 <rcu_periph_clock_enable>
 8003ed8:	01190513          	addi	a0,s2,17
 8003edc:	aa8fe0ef          	jal	ra,8002184 <rcu_periph_clock_enable>
 8003ee0:	4641                	li	a2,16
 8003ee2:	4581                	li	a1,0
 8003ee4:	40020537          	lui	a0,0x40020
 8003ee8:	a3cfe0ef          	jal	ra,8002124 <gpio_af_set>
 8003eec:	02000613          	li	a2,32
 8003ef0:	4581                	li	a1,0
 8003ef2:	40020537          	lui	a0,0x40020
 8003ef6:	a2efe0ef          	jal	ra,8002124 <gpio_af_set>
 8003efa:	46c1                	li	a3,16
 8003efc:	4601                	li	a2,0
 8003efe:	4589                	li	a1,2
 8003f00:	40020537          	lui	a0,0x40020
 8003f04:	982fe0ef          	jal	ra,8002086 <gpio_mode_set>
 8003f08:	46c1                	li	a3,16
 8003f0a:	4609                	li	a2,2
 8003f0c:	4581                	li	a1,0
 8003f0e:	40020537          	lui	a0,0x40020
 8003f12:	9c2fe0ef          	jal	ra,80020d4 <gpio_output_options_set>
 8003f16:	02000693          	li	a3,32
 8003f1a:	4601                	li	a2,0
 8003f1c:	4589                	li	a1,2
 8003f1e:	40020537          	lui	a0,0x40020
 8003f22:	964fe0ef          	jal	ra,8002086 <gpio_mode_set>
 8003f26:	02000693          	li	a3,32
 8003f2a:	b785                	j	8003e8a <uart_config+0x72>
 8003f2c:	400057b7          	lui	a5,0x40005
 8003f30:	80078793          	addi	a5,a5,-2048 # 40004800 <_sp+0x1ffff500>
 8003f34:	f8f516e3          	bne	a0,a5,8003ec0 <uart_config+0xa8>
 8003f38:	6905                	lui	s2,0x1
 8003f3a:	01290513          	addi	a0,s2,18 # 1012 <__stack_size+0x12>
 8003f3e:	a46fe0ef          	jal	ra,8002184 <rcu_periph_clock_enable>
 8003f42:	c0090513          	addi	a0,s2,-1024
 8003f46:	a3efe0ef          	jal	ra,8002184 <rcu_periph_clock_enable>
 8003f4a:	c0190513          	addi	a0,s2,-1023
 8003f4e:	a36fe0ef          	jal	ra,8002184 <rcu_periph_clock_enable>
 8003f52:	40020937          	lui	s2,0x40020
 8003f56:	6621                	lui	a2,0x8
 8003f58:	45a1                	li	a1,8
 8003f5a:	40090513          	addi	a0,s2,1024 # 40020400 <_sp+0x2001b100>
 8003f5e:	9c6fe0ef          	jal	ra,8002124 <gpio_af_set>
 8003f62:	10000613          	li	a2,256
 8003f66:	4589                	li	a1,2
 8003f68:	40020537          	lui	a0,0x40020
 8003f6c:	9b8fe0ef          	jal	ra,8002124 <gpio_af_set>
 8003f70:	10000693          	li	a3,256
 8003f74:	4601                	li	a2,0
 8003f76:	4589                	li	a1,2
 8003f78:	40020537          	lui	a0,0x40020
 8003f7c:	90afe0ef          	jal	ra,8002086 <gpio_mode_set>
 8003f80:	10000693          	li	a3,256
 8003f84:	4609                	li	a2,2
 8003f86:	4581                	li	a1,0
 8003f88:	40020537          	lui	a0,0x40020
 8003f8c:	948fe0ef          	jal	ra,80020d4 <gpio_output_options_set>
 8003f90:	66a1                	lui	a3,0x8
 8003f92:	4601                	li	a2,0
 8003f94:	4589                	li	a1,2
 8003f96:	40090513          	addi	a0,s2,1024
 8003f9a:	8ecfe0ef          	jal	ra,8002086 <gpio_mode_set>
 8003f9e:	66a1                	lui	a3,0x8
 8003fa0:	4609                	li	a2,2
 8003fa2:	4581                	li	a1,0
 8003fa4:	40090513          	addi	a0,s2,1024
 8003fa8:	b5ed                	j	8003e92 <uart_config+0x7a>

08003faa <uart_config_all>:
 8003faa:	2e4002ef          	jal	t0,800428e <__riscv_save_0>
 8003fae:	1141                	addi	sp,sp,-16
 8003fb0:	85aa                	mv	a1,a0
 8003fb2:	c62a                	sw	a0,12(sp)
 8003fb4:	40005537          	lui	a0,0x40005
 8003fb8:	80050513          	addi	a0,a0,-2048 # 40004800 <_sp+0x1ffff500>
 8003fbc:	e5dff0ef          	jal	ra,8003e18 <uart_config>
 8003fc0:	45b2                	lw	a1,12(sp)
 8003fc2:	40004537          	lui	a0,0x40004
 8003fc6:	40050513          	addi	a0,a0,1024 # 40004400 <_sp+0x1ffff100>
 8003fca:	e4fff0ef          	jal	ra,8003e18 <uart_config>
 8003fce:	45b2                	lw	a1,12(sp)
 8003fd0:	40011537          	lui	a0,0x40011
 8003fd4:	e45ff0ef          	jal	ra,8003e18 <uart_config>
 8003fd8:	0141                	addi	sp,sp,16
 8003fda:	ace1                	j	80042b2 <__riscv_restore_0>

08003fdc <uart_readable>:
 8003fdc:	2b2002ef          	jal	t0,800428e <__riscv_save_0>
 8003fe0:	70500593          	li	a1,1797
 8003fe4:	c7afe0ef          	jal	ra,800245e <usart_flag_get>
 8003fe8:	00a03533          	snez	a0,a0
 8003fec:	a4d9                	j	80042b2 <__riscv_restore_0>

08003fee <uart_writable>:
 8003fee:	2a0002ef          	jal	t0,800428e <__riscv_save_0>
 8003ff2:	70700593          	li	a1,1799
 8003ff6:	c68fe0ef          	jal	ra,800245e <usart_flag_get>
 8003ffa:	157d                	addi	a0,a0,-1
 8003ffc:	00153513          	seqz	a0,a0
 8004000:	ac4d                	j	80042b2 <__riscv_restore_0>

08004002 <uart_getc>:
 8004002:	28c002ef          	jal	t0,800428e <__riscv_save_0>
 8004006:	842a                	mv	s0,a0
 8004008:	c40fe0ef          	jal	ra,8002448 <usart_data_receive>
 800400c:	60451493          	sext.b	s1,a0
 8004010:	70300593          	li	a1,1795
 8004014:	8522                	mv	a0,s0
 8004016:	c48fe0ef          	jal	ra,800245e <usart_flag_get>
 800401a:	c919                	beqz	a0,8004030 <uart_getc+0x2e>
 800401c:	08001537          	lui	a0,0x8001
 8004020:	6ac50513          	addi	a0,a0,1708 # 80016ac <_sicode+0x3e0>
 8004024:	23f9                	jal	80045f2 <puts>
 8004026:	70300593          	li	a1,1795
 800402a:	8522                	mv	a0,s0
 800402c:	c46fe0ef          	jal	ra,8002472 <usart_flag_clear>
 8004030:	8526                	mv	a0,s1
 8004032:	a441                	j	80042b2 <__riscv_restore_0>

08004034 <uart_putc>:
 8004034:	25a002ef          	jal	t0,800428e <__riscv_save_0>
 8004038:	0ff5f593          	zext.b	a1,a1
 800403c:	842a                	mv	s0,a0
 800403e:	4485                	li	s1,1
 8004040:	c00fe0ef          	jal	ra,8002440 <usart_data_transmit>
 8004044:	70700593          	li	a1,1799
 8004048:	8522                	mv	a0,s0
 800404a:	c14fe0ef          	jal	ra,800245e <usart_flag_get>
 800404e:	fe951be3          	bne	a0,s1,8004044 <uart_putc+0x10>
 8004052:	a485                	j	80042b2 <__riscv_restore_0>

08004054 <uart_putdata>:
 8004054:	23a002ef          	jal	t0,800428e <__riscv_save_0>
 8004058:	892a                	mv	s2,a0
 800405a:	842e                	mv	s0,a1
 800405c:	84b2                	mv	s1,a2
 800405e:	854a                	mv	a0,s2
 8004060:	f8fff0ef          	jal	ra,8003fee <uart_writable>
 8004064:	dd6d                	beqz	a0,800405e <uart_putdata+0xa>
 8004066:	94a2                	add	s1,s1,s0
 8004068:	00941363          	bne	s0,s1,800406e <uart_putdata+0x1a>
 800406c:	a499                	j	80042b2 <__riscv_restore_0>
 800406e:	854a                	mv	a0,s2
 8004070:	00040583          	lb	a1,0(s0) # 8000000 <compat_prefix>
 8004074:	0405                	addi	s0,s0,1
 8004076:	fbfff0ef          	jal	ra,8004034 <uart_putc>
 800407a:	b7fd                	j	8004068 <uart_putdata+0x14>

0800407c <uart_getc_with_timeout>:
 800407c:	212002ef          	jal	t0,800428e <__riscv_save_0>
 8004080:	84aa                	mv	s1,a0
 8004082:	892e                	mv	s2,a1
 8004084:	8432                	mv	s0,a2
 8004086:	8526                	mv	a0,s1
 8004088:	f55ff0ef          	jal	ra,8003fdc <uart_readable>
 800408c:	c901                	beqz	a0,800409c <uart_getc_with_timeout+0x20>
 800408e:	8526                	mv	a0,s1
 8004090:	f73ff0ef          	jal	ra,8004002 <uart_getc>
 8004094:	00a90023          	sb	a0,0(s2)
 8004098:	4501                	li	a0,0
 800409a:	ac21                	j	80042b2 <__riscv_restore_0>
 800409c:	147d                	addi	s0,s0,-1
 800409e:	f465                	bnez	s0,8004086 <uart_getc_with_timeout+0xa>
 80040a0:	4505                	li	a0,1
 80040a2:	bfe5                	j	800409a <uart_getc_with_timeout+0x1e>

080040a4 <uart_clean_rx>:
 80040a4:	1ea002ef          	jal	t0,800428e <__riscv_save_0>
 80040a8:	842a                	mv	s0,a0
 80040aa:	8522                	mv	a0,s0
 80040ac:	f31ff0ef          	jal	ra,8003fdc <uart_readable>
 80040b0:	e111                	bnez	a0,80040b4 <uart_clean_rx+0x10>
 80040b2:	a401                	j	80042b2 <__riscv_restore_0>
 80040b4:	8522                	mv	a0,s0
 80040b6:	f4dff0ef          	jal	ra,8004002 <uart_getc>
 80040ba:	bfc5                	j	80040aa <uart_clean_rx+0x6>

080040bc <uart_wait_txcomplete>:
 80040bc:	1b8002ef          	jal	t0,8004274 <__riscv_save_4>
 80040c0:	892a                	mv	s2,a0
 80040c2:	842e                	mv	s0,a1
 80040c4:	4481                	li	s1,0
 80040c6:	4985                	li	s3,1
 80040c8:	70600593          	li	a1,1798
 80040cc:	854a                	mv	a0,s2
 80040ce:	b90fe0ef          	jal	ra,800245e <usart_flag_get>
 80040d2:	01350a63          	beq	a0,s3,80040e6 <uart_wait_txcomplete+0x2a>
 80040d6:	03200513          	li	a0,50
 80040da:	ca3ff0ef          	jal	ra,8003d7c <sys_udelay>
 80040de:	00148793          	addi	a5,s1,1 # 10001 <__stack_size+0xf001>
 80040e2:	00947363          	bgeu	s0,s1,80040e8 <uart_wait_txcomplete+0x2c>
 80040e6:	a2c9                	j	80042a8 <__riscv_restore_4>
 80040e8:	84be                	mv	s1,a5
 80040ea:	bff9                	j	80040c8 <uart_wait_txcomplete+0xc>

080040ec <auto_detect_uart_internal>:
 80040ec:	17a002ef          	jal	t0,8004266 <__riscv_save_10>
 80040f0:	40005937          	lui	s2,0x40005
 80040f4:	40004437          	lui	s0,0x40004
 80040f8:	84aa                	mv	s1,a0
 80040fa:	4981                	li	s3,0
 80040fc:	5afd                	li	s5,-1
 80040fe:	80090b13          	addi	s6,s2,-2048 # 40004800 <_sp+0x1ffff500>
 8004102:	07500a13          	li	s4,117
 8004106:	40040b93          	addi	s7,s0,1024 # 40004400 <_sp+0x1ffff100>
 800410a:	40011c37          	lui	s8,0x40011
 800410e:	0099e663          	bltu	s3,s1,800411a <auto_detect_uart_internal+0x2e>
 8004112:	01548463          	beq	s1,s5,800411a <auto_detect_uart_internal+0x2e>
 8004116:	557d                	li	a0,-1
 8004118:	a259                	j	800429e <__riscv_restore_10>
 800411a:	81c92783          	lw	a5,-2020(s2)
 800411e:	0207f793          	andi	a5,a5,32
 8004122:	ef91                	bnez	a5,800413e <auto_detect_uart_internal+0x52>
 8004124:	41c42783          	lw	a5,1052(s0)
 8004128:	0207f793          	andi	a5,a5,32
 800412c:	c38d                	beqz	a5,800414e <auto_detect_uart_internal+0x62>
 800412e:	855e                	mv	a0,s7
 8004130:	ed3ff0ef          	jal	ra,8004002 <uart_getc>
 8004134:	01451d63          	bne	a0,s4,800414e <auto_detect_uart_internal+0x62>
 8004138:	40040513          	addi	a0,s0,1024
 800413c:	bff1                	j	8004118 <auto_detect_uart_internal+0x2c>
 800413e:	855a                	mv	a0,s6
 8004140:	ec3ff0ef          	jal	ra,8004002 <uart_getc>
 8004144:	ff4510e3          	bne	a0,s4,8004124 <auto_detect_uart_internal+0x38>
 8004148:	80090513          	addi	a0,s2,-2048
 800414c:	b7f1                	j	8004118 <auto_detect_uart_internal+0x2c>
 800414e:	01cc2783          	lw	a5,28(s8) # 4001101c <_sp+0x2000bd1c>
 8004152:	0207f793          	andi	a5,a5,32
 8004156:	e791                	bnez	a5,8004162 <auto_detect_uart_internal+0x76>
 8004158:	4515                	li	a0,5
 800415a:	c23ff0ef          	jal	ra,8003d7c <sys_udelay>
 800415e:	0995                	addi	s3,s3,5
 8004160:	b77d                	j	800410e <auto_detect_uart_internal+0x22>
 8004162:	40011537          	lui	a0,0x40011
 8004166:	e9dff0ef          	jal	ra,8004002 <uart_getc>
 800416a:	ff4517e3          	bne	a0,s4,8004158 <auto_detect_uart_internal+0x6c>
 800416e:	40011537          	lui	a0,0x40011
 8004172:	b75d                	j	8004118 <auto_detect_uart_internal+0x2c>

08004174 <hau_deinit>:
 8004174:	11a002ef          	jal	t0,800428e <__riscv_save_0>
 8004178:	50500513          	li	a0,1285
 800417c:	820fe0ef          	jal	ra,800219c <rcu_periph_reset_enable>
 8004180:	50500513          	li	a0,1285
 8004184:	830fe0ef          	jal	ra,80021b4 <rcu_periph_reset_disable>
 8004188:	a22d                	j	80042b2 <__riscv_restore_0>

0800418a <hau_init>:
 800418a:	4c0607b7          	lui	a5,0x4c060
 800418e:	40078793          	addi	a5,a5,1024 # 4c060400 <_sp+0x2c05b100>
 8004192:	4398                	lw	a4,0(a5)
 8004194:	fffc06b7          	lui	a3,0xfffc0
 8004198:	f0f68693          	addi	a3,a3,-241 # fffbff0f <_sp+0xdffbac0f>
 800419c:	8f75                	and	a4,a4,a3
 800419e:	c398                	sw	a4,0(a5)
 80041a0:	4118                	lw	a4,0(a0)
 80041a2:	4510                	lw	a2,8(a0)
 80041a4:	4394                	lw	a3,0(a5)
 80041a6:	8f51                	or	a4,a4,a2
 80041a8:	8f55                	or	a4,a4,a3
 80041aa:	4154                	lw	a3,4(a0)
 80041ac:	8f55                	or	a4,a4,a3
 80041ae:	c398                	sw	a4,0(a5)
 80041b0:	4154                	lw	a3,4(a0)
 80041b2:	04000713          	li	a4,64
 80041b6:	00e69a63          	bne	a3,a4,80041ca <hau_init+0x40>
 80041ba:	4398                	lw	a4,0(a5)
 80041bc:	49071713          	bclri	a4,a4,0x10
 80041c0:	c398                	sw	a4,0(a5)
 80041c2:	4398                	lw	a4,0(a5)
 80041c4:	4554                	lw	a3,12(a0)
 80041c6:	8f55                	or	a4,a4,a3
 80041c8:	c398                	sw	a4,0(a5)
 80041ca:	4c060737          	lui	a4,0x4c060
 80041ce:	40072783          	lw	a5,1024(a4) # 4c060400 <_sp+0x2c05b100>
 80041d2:	0047e793          	ori	a5,a5,4
 80041d6:	40f72023          	sw	a5,1024(a4)
 80041da:	8082                	ret

080041dc <hau_last_word_validbits_num_config>:
 80041dc:	4c0607b7          	lui	a5,0x4c060
 80041e0:	40078793          	addi	a5,a5,1024 # 4c060400 <_sp+0x2c05b100>
 80041e4:	4798                	lw	a4,8(a5)
 80041e6:	897d                	andi	a0,a0,31
 80041e8:	9b01                	andi	a4,a4,-32
 80041ea:	c798                	sw	a4,8(a5)
 80041ec:	4798                	lw	a4,8(a5)
 80041ee:	8d59                	or	a0,a0,a4
 80041f0:	c788                	sw	a0,8(a5)
 80041f2:	8082                	ret

080041f4 <hau_data_write>:
 80041f4:	4c0607b7          	lui	a5,0x4c060
 80041f8:	40a7a223          	sw	a0,1028(a5) # 4c060404 <_sp+0x2c05b104>
 80041fc:	8082                	ret

080041fe <hau_digest_read>:
 80041fe:	4c0607b7          	lui	a5,0x4c060
 8004202:	40078713          	addi	a4,a5,1024 # 4c060400 <_sp+0x2c05b100>
 8004206:	4754                	lw	a3,12(a4)
 8004208:	70078793          	addi	a5,a5,1792
 800420c:	c114                	sw	a3,0(a0)
 800420e:	4b14                	lw	a3,16(a4)
 8004210:	c154                	sw	a3,4(a0)
 8004212:	4b54                	lw	a3,20(a4)
 8004214:	c514                	sw	a3,8(a0)
 8004216:	4f14                	lw	a3,24(a4)
 8004218:	c554                	sw	a3,12(a0)
 800421a:	4f58                	lw	a4,28(a4)
 800421c:	c918                	sw	a4,16(a0)
 800421e:	53d8                	lw	a4,36(a5)
 8004220:	c958                	sw	a4,20(a0)
 8004222:	5798                	lw	a4,40(a5)
 8004224:	cd18                	sw	a4,24(a0)
 8004226:	57dc                	lw	a5,44(a5)
 8004228:	cd5c                	sw	a5,28(a0)
 800422a:	8082                	ret

0800422c <hau_digest_calculation_enable>:
 800422c:	4c060737          	lui	a4,0x4c060
 8004230:	40872783          	lw	a5,1032(a4) # 4c060408 <_sp+0x2c05b108>
 8004234:	1007e793          	ori	a5,a5,256
 8004238:	40f72423          	sw	a5,1032(a4)
 800423c:	8082                	ret

0800423e <hau_flag_get>:
 800423e:	6785                	lui	a5,0x1
 8004240:	8fe9                	and	a5,a5,a0
 8004242:	cb89                	beqz	a5,8004254 <hau_flag_get+0x16>
 8004244:	4c0607b7          	lui	a5,0x4c060
 8004248:	4007a783          	lw	a5,1024(a5) # 4c060400 <_sp+0x2c05b100>
 800424c:	8d7d                	and	a0,a0,a5
 800424e:	00a03533          	snez	a0,a0
 8004252:	8082                	ret
 8004254:	4c0607b7          	lui	a5,0x4c060
 8004258:	4247a783          	lw	a5,1060(a5) # 4c060424 <_sp+0x2c05b124>
 800425c:	bfc5                	j	800424c <hau_flag_get+0xe>

0800425e <__riscv_save_12>:
 800425e:	7139                	addi	sp,sp,-64
 8004260:	4301                	li	t1,0
 8004262:	c66e                	sw	s11,12(sp)
 8004264:	a019                	j	800426a <__riscv_save_10+0x4>

08004266 <__riscv_save_10>:
 8004266:	7139                	addi	sp,sp,-64
 8004268:	5341                	li	t1,-16
 800426a:	c86a                	sw	s10,16(sp)
 800426c:	ca66                	sw	s9,20(sp)
 800426e:	cc62                	sw	s8,24(sp)
 8004270:	ce5e                	sw	s7,28(sp)
 8004272:	a019                	j	8004278 <__riscv_save_4+0x4>

08004274 <__riscv_save_4>:
 8004274:	7139                	addi	sp,sp,-64
 8004276:	5301                	li	t1,-32
 8004278:	d05a                	sw	s6,32(sp)
 800427a:	d256                	sw	s5,36(sp)
 800427c:	d452                	sw	s4,40(sp)
 800427e:	d64e                	sw	s3,44(sp)
 8004280:	d84a                	sw	s2,48(sp)
 8004282:	da26                	sw	s1,52(sp)
 8004284:	dc22                	sw	s0,56(sp)
 8004286:	de06                	sw	ra,60(sp)
 8004288:	40610133          	sub	sp,sp,t1
 800428c:	8282                	jr	t0

0800428e <__riscv_save_0>:
 800428e:	1141                	addi	sp,sp,-16
 8004290:	c04a                	sw	s2,0(sp)
 8004292:	c226                	sw	s1,4(sp)
 8004294:	c422                	sw	s0,8(sp)
 8004296:	c606                	sw	ra,12(sp)
 8004298:	8282                	jr	t0

0800429a <__riscv_restore_12>:
 800429a:	4db2                	lw	s11,12(sp)
 800429c:	0141                	addi	sp,sp,16

0800429e <__riscv_restore_10>:
 800429e:	4d02                	lw	s10,0(sp)
 80042a0:	4c92                	lw	s9,4(sp)
 80042a2:	4c22                	lw	s8,8(sp)
 80042a4:	4bb2                	lw	s7,12(sp)
 80042a6:	0141                	addi	sp,sp,16

080042a8 <__riscv_restore_4>:
 80042a8:	4b02                	lw	s6,0(sp)
 80042aa:	4a92                	lw	s5,4(sp)
 80042ac:	4a22                	lw	s4,8(sp)
 80042ae:	49b2                	lw	s3,12(sp)
 80042b0:	0141                	addi	sp,sp,16

080042b2 <__riscv_restore_0>:
 80042b2:	4902                	lw	s2,0(sp)
 80042b4:	4492                	lw	s1,4(sp)
 80042b6:	4422                	lw	s0,8(sp)
 80042b8:	40b2                	lw	ra,12(sp)
 80042ba:	0141                	addi	sp,sp,16
 80042bc:	8082                	ret

080042be <atexit>:
 80042be:	85aa                	mv	a1,a0
 80042c0:	4681                	li	a3,0
 80042c2:	4601                	li	a2,0
 80042c4:	4501                	li	a0,0
 80042c6:	a9e5                	j	80047be <__register_exitproc>

080042c8 <__libc_fini_array>:
 80042c8:	1141                	addi	sp,sp,-16
 80042ca:	c422                	sw	s0,8(sp)
 80042cc:	c226                	sw	s1,4(sp)
 80042ce:	00001417          	auipc	s0,0x1
 80042d2:	43a40413          	addi	s0,s0,1082 # 8005708 <__fini_array_end>
 80042d6:	00001497          	auipc	s1,0x1
 80042da:	43248493          	addi	s1,s1,1074 # 8005708 <__fini_array_end>
 80042de:	8c05                	sub	s0,s0,s1
 80042e0:	c606                	sw	ra,12(sp)
 80042e2:	8409                	srai	s0,s0,0x2
 80042e4:	e411                	bnez	s0,80042f0 <__libc_fini_array+0x28>
 80042e6:	40b2                	lw	ra,12(sp)
 80042e8:	4422                	lw	s0,8(sp)
 80042ea:	4492                	lw	s1,4(sp)
 80042ec:	0141                	addi	sp,sp,16
 80042ee:	8082                	ret
 80042f0:	147d                	addi	s0,s0,-1
 80042f2:	209447b3          	sh2add	a5,s0,s1
 80042f6:	439c                	lw	a5,0(a5)
 80042f8:	9782                	jalr	a5
 80042fa:	b7ed                	j	80042e4 <__libc_fini_array+0x1c>

080042fc <__libc_init_array>:
 80042fc:	1141                	addi	sp,sp,-16
 80042fe:	c422                	sw	s0,8(sp)
 8004300:	c226                	sw	s1,4(sp)
 8004302:	00001417          	auipc	s0,0x1
 8004306:	40640413          	addi	s0,s0,1030 # 8005708 <__fini_array_end>
 800430a:	00001497          	auipc	s1,0x1
 800430e:	3fe48493          	addi	s1,s1,1022 # 8005708 <__fini_array_end>
 8004312:	8c81                	sub	s1,s1,s0
 8004314:	c04a                	sw	s2,0(sp)
 8004316:	c606                	sw	ra,12(sp)
 8004318:	8489                	srai	s1,s1,0x2
 800431a:	4901                	li	s2,0
 800431c:	02991563          	bne	s2,s1,8004346 <__libc_init_array+0x4a>
 8004320:	00001417          	auipc	s0,0x1
 8004324:	3e840413          	addi	s0,s0,1000 # 8005708 <__fini_array_end>
 8004328:	00001497          	auipc	s1,0x1
 800432c:	3e048493          	addi	s1,s1,992 # 8005708 <__fini_array_end>
 8004330:	8c81                	sub	s1,s1,s0
 8004332:	8489                	srai	s1,s1,0x2
 8004334:	4901                	li	s2,0
 8004336:	00991d63          	bne	s2,s1,8004350 <__libc_init_array+0x54>
 800433a:	40b2                	lw	ra,12(sp)
 800433c:	4422                	lw	s0,8(sp)
 800433e:	4492                	lw	s1,4(sp)
 8004340:	4902                	lw	s2,0(sp)
 8004342:	0141                	addi	sp,sp,16
 8004344:	8082                	ret
 8004346:	401c                	lw	a5,0(s0)
 8004348:	0905                	addi	s2,s2,1
 800434a:	0411                	addi	s0,s0,4
 800434c:	9782                	jalr	a5
 800434e:	b7f9                	j	800431c <__libc_init_array+0x20>
 8004350:	401c                	lw	a5,0(s0)
 8004352:	0905                	addi	s2,s2,1
 8004354:	0411                	addi	s0,s0,4
 8004356:	9782                	jalr	a5
 8004358:	bff9                	j	8004336 <__libc_init_array+0x3a>

0800435a <memcpy>:
 800435a:	00a5c7b3          	xor	a5,a1,a0
 800435e:	8b8d                	andi	a5,a5,3
 8004360:	00c506b3          	add	a3,a0,a2
 8004364:	e781                	bnez	a5,800436c <memcpy+0x12>
 8004366:	478d                	li	a5,3
 8004368:	00c7ee63          	bltu	a5,a2,8004384 <memcpy+0x2a>
 800436c:	87aa                	mv	a5,a0
 800436e:	06d57163          	bgeu	a0,a3,80043d0 <memcpy+0x76>
 8004372:	0005c703          	lbu	a4,0(a1) # 2000 <__stack_size+0x1000>
 8004376:	0785                	addi	a5,a5,1
 8004378:	0585                	addi	a1,a1,1
 800437a:	fee78fa3          	sb	a4,-1(a5)
 800437e:	fed7eae3          	bltu	a5,a3,8004372 <memcpy+0x18>
 8004382:	8082                	ret
 8004384:	00357713          	andi	a4,a0,3
 8004388:	87aa                	mv	a5,a0
 800438a:	cb11                	beqz	a4,800439e <memcpy+0x44>
 800438c:	0005c703          	lbu	a4,0(a1)
 8004390:	0785                	addi	a5,a5,1
 8004392:	0585                	addi	a1,a1,1
 8004394:	fee78fa3          	sb	a4,-1(a5)
 8004398:	0037f713          	andi	a4,a5,3
 800439c:	b7fd                	j	800438a <memcpy+0x30>
 800439e:	ffc6f713          	andi	a4,a3,-4
 80043a2:	40f70833          	sub	a6,a4,a5
 80043a6:	02000613          	li	a2,32
 80043aa:	03064463          	blt	a2,a6,80043d2 <memcpy+0x78>
 80043ae:	882e                	mv	a6,a1
 80043b0:	863e                	mv	a2,a5
 80043b2:	06e66b63          	bltu	a2,a4,8004428 <memcpy+0xce>
 80043b6:	ffd78813          	addi	a6,a5,-3
 80043ba:	4601                	li	a2,0
 80043bc:	01076663          	bltu	a4,a6,80043c8 <memcpy+0x6e>
 80043c0:	070d                	addi	a4,a4,3
 80043c2:	8f1d                	sub	a4,a4,a5
 80043c4:	ffc77613          	andi	a2,a4,-4
 80043c8:	97b2                	add	a5,a5,a2
 80043ca:	95b2                	add	a1,a1,a2
 80043cc:	fad7e3e3          	bltu	a5,a3,8004372 <memcpy+0x18>
 80043d0:	8082                	ret
 80043d2:	0005a383          	lw	t2,0(a1)
 80043d6:	0045a283          	lw	t0,4(a1)
 80043da:	0085af83          	lw	t6,8(a1)
 80043de:	00c5af03          	lw	t5,12(a1)
 80043e2:	0105ae83          	lw	t4,16(a1)
 80043e6:	0145ae03          	lw	t3,20(a1)
 80043ea:	0185a303          	lw	t1,24(a1)
 80043ee:	01c5a883          	lw	a7,28(a1)
 80043f2:	0077a023          	sw	t2,0(a5)
 80043f6:	0057a223          	sw	t0,4(a5)
 80043fa:	0205a803          	lw	a6,32(a1)
 80043fe:	01f7a423          	sw	t6,8(a5)
 8004402:	01e7a623          	sw	t5,12(a5)
 8004406:	01d7a823          	sw	t4,16(a5)
 800440a:	01c7aa23          	sw	t3,20(a5)
 800440e:	0067ac23          	sw	t1,24(a5)
 8004412:	0117ae23          	sw	a7,28(a5)
 8004416:	02478793          	addi	a5,a5,36
 800441a:	02458593          	addi	a1,a1,36
 800441e:	ff07ae23          	sw	a6,-4(a5)
 8004422:	40f70833          	sub	a6,a4,a5
 8004426:	b751                	j	80043aa <memcpy+0x50>
 8004428:	00082883          	lw	a7,0(a6)
 800442c:	0611                	addi	a2,a2,4
 800442e:	0811                	addi	a6,a6,4
 8004430:	ff162e23          	sw	a7,-4(a2) # 7ffc <__stack_size+0x6ffc>
 8004434:	bfbd                	j	80043b2 <memcpy+0x58>

08004436 <memset>:
 8004436:	433d                	li	t1,15
 8004438:	872a                	mv	a4,a0
 800443a:	02c37363          	bgeu	t1,a2,8004460 <memset+0x2a>
 800443e:	00f77793          	andi	a5,a4,15
 8004442:	efbd                	bnez	a5,80044c0 <memset+0x8a>
 8004444:	e5ad                	bnez	a1,80044ae <memset+0x78>
 8004446:	ff067693          	andi	a3,a2,-16
 800444a:	8a3d                	andi	a2,a2,15
 800444c:	96ba                	add	a3,a3,a4
 800444e:	c30c                	sw	a1,0(a4)
 8004450:	c34c                	sw	a1,4(a4)
 8004452:	c70c                	sw	a1,8(a4)
 8004454:	c74c                	sw	a1,12(a4)
 8004456:	0741                	addi	a4,a4,16
 8004458:	fed76be3          	bltu	a4,a3,800444e <memset+0x18>
 800445c:	e211                	bnez	a2,8004460 <memset+0x2a>
 800445e:	8082                	ret
 8004460:	40c306b3          	sub	a3,t1,a2
 8004464:	068a                	slli	a3,a3,0x2
 8004466:	00000297          	auipc	t0,0x0
 800446a:	9696                	add	a3,a3,t0
 800446c:	00a68067          	jr	10(a3)
 8004470:	00b70723          	sb	a1,14(a4)
 8004474:	00b706a3          	sb	a1,13(a4)
 8004478:	00b70623          	sb	a1,12(a4)
 800447c:	00b705a3          	sb	a1,11(a4)
 8004480:	00b70523          	sb	a1,10(a4)
 8004484:	00b704a3          	sb	a1,9(a4)
 8004488:	00b70423          	sb	a1,8(a4)
 800448c:	00b703a3          	sb	a1,7(a4)
 8004490:	00b70323          	sb	a1,6(a4)
 8004494:	00b702a3          	sb	a1,5(a4)
 8004498:	00b70223          	sb	a1,4(a4)
 800449c:	00b701a3          	sb	a1,3(a4)
 80044a0:	00b70123          	sb	a1,2(a4)
 80044a4:	00b700a3          	sb	a1,1(a4)
 80044a8:	00b70023          	sb	a1,0(a4)
 80044ac:	8082                	ret
 80044ae:	0ff5f593          	zext.b	a1,a1
 80044b2:	00859693          	slli	a3,a1,0x8
 80044b6:	8dd5                	or	a1,a1,a3
 80044b8:	01059693          	slli	a3,a1,0x10
 80044bc:	8dd5                	or	a1,a1,a3
 80044be:	b761                	j	8004446 <memset+0x10>
 80044c0:	00279693          	slli	a3,a5,0x2
 80044c4:	00000297          	auipc	t0,0x0
 80044c8:	9696                	add	a3,a3,t0
 80044ca:	8286                	mv	t0,ra
 80044cc:	fa8680e7          	jalr	-88(a3)
 80044d0:	8096                	mv	ra,t0
 80044d2:	17c1                	addi	a5,a5,-16
 80044d4:	8f1d                	sub	a4,a4,a5
 80044d6:	963e                	add	a2,a2,a5
 80044d8:	f8c374e3          	bgeu	t1,a2,8004460 <memset+0x2a>
 80044dc:	b7a5                	j	8004444 <memset+0xe>

080044de <iprintf>:
 80044de:	715d                	addi	sp,sp,-80
 80044e0:	d422                	sw	s0,40(sp)
 80044e2:	d606                	sw	ra,44(sp)
 80044e4:	842a                	mv	s0,a0
 80044e6:	da2e                	sw	a1,52(sp)
 80044e8:	dc32                	sw	a2,56(sp)
 80044ea:	de36                	sw	a3,60(sp)
 80044ec:	c0ba                	sw	a4,64(sp)
 80044ee:	c2be                	sw	a5,68(sp)
 80044f0:	c4c2                	sw	a6,72(sp)
 80044f2:	c6c6                	sw	a7,76(sp)
 80044f4:	80c1a503          	lw	a0,-2036(gp) # 2000036c <_impure_ptr>
 80044f8:	c511                	beqz	a0,8004504 <iprintf+0x26>
 80044fa:	4d1c                	lw	a5,24(a0)
 80044fc:	e781                	bnez	a5,8004504 <iprintf+0x26>
 80044fe:	c62a                	sw	a0,12(sp)
 8004500:	2371                	jal	8004a8c <__sinit>
 8004502:	4532                	lw	a0,12(sp)
 8004504:	450c                	lw	a1,8(a0)
 8004506:	1854                	addi	a3,sp,52
 8004508:	8622                	mv	a2,s0
 800450a:	ce36                	sw	a3,28(sp)
 800450c:	1dd000ef          	jal	ra,8004ee8 <_vfiprintf_r>
 8004510:	50b2                	lw	ra,44(sp)
 8004512:	5422                	lw	s0,40(sp)
 8004514:	6161                	addi	sp,sp,80
 8004516:	8082                	ret

08004518 <_puts_r>:
 8004518:	1101                	addi	sp,sp,-32
 800451a:	ca26                	sw	s1,20(sp)
 800451c:	c84a                	sw	s2,16(sp)
 800451e:	ce06                	sw	ra,28(sp)
 8004520:	cc22                	sw	s0,24(sp)
 8004522:	c64e                	sw	s3,12(sp)
 8004524:	c452                	sw	s4,8(sp)
 8004526:	84aa                	mv	s1,a0
 8004528:	892e                	mv	s2,a1
 800452a:	c501                	beqz	a0,8004532 <_puts_r+0x1a>
 800452c:	4d1c                	lw	a5,24(a0)
 800452e:	e391                	bnez	a5,8004532 <_puts_r+0x1a>
 8004530:	2bb1                	jal	8004a8c <__sinit>
 8004532:	4c9c                	lw	a5,24(s1)
 8004534:	4480                	lw	s0,8(s1)
 8004536:	e399                	bnez	a5,800453c <_puts_r+0x24>
 8004538:	8526                	mv	a0,s1
 800453a:	2b89                	jal	8004a8c <__sinit>
 800453c:	ffffd797          	auipc	a5,0xffffd
 8004540:	19878793          	addi	a5,a5,408 # 80016d4 <__sf_fake_stdin>
 8004544:	02f41c63          	bne	s0,a5,800457c <_puts_r+0x64>
 8004548:	40c0                	lw	s0,4(s1)
 800454a:	00c45783          	lhu	a5,12(s0)
 800454e:	8ba1                	andi	a5,a5,8
 8004550:	c7b1                	beqz	a5,800459c <_puts_r+0x84>
 8004552:	481c                	lw	a5,16(s0)
 8004554:	c7a1                	beqz	a5,800459c <_puts_r+0x84>
 8004556:	59fd                	li	s3,-1
 8004558:	4a29                	li	s4,10
 800455a:	441c                	lw	a5,8(s0)
 800455c:	00094583          	lbu	a1,0(s2)
 8004560:	17fd                	addi	a5,a5,-1
 8004562:	e9b1                	bnez	a1,80045b6 <_puts_r+0x9e>
 8004564:	c41c                	sw	a5,8(s0)
 8004566:	0607de63          	bgez	a5,80045e2 <_puts_r+0xca>
 800456a:	8622                	mv	a2,s0
 800456c:	45a9                	li	a1,10
 800456e:	8526                	mv	a0,s1
 8004570:	2071                	jal	80045fc <__swbuf_r>
 8004572:	57fd                	li	a5,-1
 8004574:	02f50863          	beq	a0,a5,80045a4 <_puts_r+0x8c>
 8004578:	4529                	li	a0,10
 800457a:	a035                	j	80045a6 <_puts_r+0x8e>
 800457c:	ffffd797          	auipc	a5,0xffffd
 8004580:	17878793          	addi	a5,a5,376 # 80016f4 <__sf_fake_stdout>
 8004584:	00f41463          	bne	s0,a5,800458c <_puts_r+0x74>
 8004588:	4480                	lw	s0,8(s1)
 800458a:	b7c1                	j	800454a <_puts_r+0x32>
 800458c:	ffffd797          	auipc	a5,0xffffd
 8004590:	12878793          	addi	a5,a5,296 # 80016b4 <__sf_fake_stderr>
 8004594:	faf41be3          	bne	s0,a5,800454a <_puts_r+0x32>
 8004598:	44c0                	lw	s0,12(s1)
 800459a:	bf45                	j	800454a <_puts_r+0x32>
 800459c:	85a2                	mv	a1,s0
 800459e:	8526                	mv	a0,s1
 80045a0:	2a31                	jal	80046bc <__swsetup_r>
 80045a2:	d955                	beqz	a0,8004556 <_puts_r+0x3e>
 80045a4:	557d                	li	a0,-1
 80045a6:	40f2                	lw	ra,28(sp)
 80045a8:	4462                	lw	s0,24(sp)
 80045aa:	44d2                	lw	s1,20(sp)
 80045ac:	4942                	lw	s2,16(sp)
 80045ae:	49b2                	lw	s3,12(sp)
 80045b0:	4a22                	lw	s4,8(sp)
 80045b2:	6105                	addi	sp,sp,32
 80045b4:	8082                	ret
 80045b6:	c41c                	sw	a5,8(s0)
 80045b8:	0905                	addi	s2,s2,1
 80045ba:	0007d763          	bgez	a5,80045c8 <_puts_r+0xb0>
 80045be:	4c18                	lw	a4,24(s0)
 80045c0:	00e7cb63          	blt	a5,a4,80045d6 <_puts_r+0xbe>
 80045c4:	01458963          	beq	a1,s4,80045d6 <_puts_r+0xbe>
 80045c8:	401c                	lw	a5,0(s0)
 80045ca:	00178713          	addi	a4,a5,1
 80045ce:	c018                	sw	a4,0(s0)
 80045d0:	00b78023          	sb	a1,0(a5)
 80045d4:	b759                	j	800455a <_puts_r+0x42>
 80045d6:	8622                	mv	a2,s0
 80045d8:	8526                	mv	a0,s1
 80045da:	200d                	jal	80045fc <__swbuf_r>
 80045dc:	f7351fe3          	bne	a0,s3,800455a <_puts_r+0x42>
 80045e0:	b7d1                	j	80045a4 <_puts_r+0x8c>
 80045e2:	401c                	lw	a5,0(s0)
 80045e4:	00178713          	addi	a4,a5,1
 80045e8:	c018                	sw	a4,0(s0)
 80045ea:	4729                	li	a4,10
 80045ec:	00e78023          	sb	a4,0(a5)
 80045f0:	b761                	j	8004578 <_puts_r+0x60>

080045f2 <puts>:
 80045f2:	85aa                	mv	a1,a0
 80045f4:	80c1a503          	lw	a0,-2036(gp) # 2000036c <_impure_ptr>
 80045f8:	f21ff06f          	j	8004518 <_puts_r>

080045fc <__swbuf_r>:
 80045fc:	1101                	addi	sp,sp,-32
 80045fe:	cc22                	sw	s0,24(sp)
 8004600:	ca26                	sw	s1,20(sp)
 8004602:	c84a                	sw	s2,16(sp)
 8004604:	ce06                	sw	ra,28(sp)
 8004606:	c64e                	sw	s3,12(sp)
 8004608:	84aa                	mv	s1,a0
 800460a:	892e                	mv	s2,a1
 800460c:	8432                	mv	s0,a2
 800460e:	c501                	beqz	a0,8004616 <__swbuf_r+0x1a>
 8004610:	4d1c                	lw	a5,24(a0)
 8004612:	e391                	bnez	a5,8004616 <__swbuf_r+0x1a>
 8004614:	29a5                	jal	8004a8c <__sinit>
 8004616:	ffffd797          	auipc	a5,0xffffd
 800461a:	0be78793          	addi	a5,a5,190 # 80016d4 <__sf_fake_stdin>
 800461e:	06f41963          	bne	s0,a5,8004690 <__swbuf_r+0x94>
 8004622:	40c0                	lw	s0,4(s1)
 8004624:	4c1c                	lw	a5,24(s0)
 8004626:	c41c                	sw	a5,8(s0)
 8004628:	00c45783          	lhu	a5,12(s0)
 800462c:	8ba1                	andi	a5,a5,8
 800462e:	c3c9                	beqz	a5,80046b0 <__swbuf_r+0xb4>
 8004630:	481c                	lw	a5,16(s0)
 8004632:	cfbd                	beqz	a5,80046b0 <__swbuf_r+0xb4>
 8004634:	481c                	lw	a5,16(s0)
 8004636:	4008                	lw	a0,0(s0)
 8004638:	0ff97993          	zext.b	s3,s2
 800463c:	0ff97913          	zext.b	s2,s2
 8004640:	8d1d                	sub	a0,a0,a5
 8004642:	485c                	lw	a5,20(s0)
 8004644:	00f54663          	blt	a0,a5,8004650 <__swbuf_r+0x54>
 8004648:	85a2                	mv	a1,s0
 800464a:	8526                	mv	a0,s1
 800464c:	2605                	jal	800496c <_fflush_r>
 800464e:	e52d                	bnez	a0,80046b8 <__swbuf_r+0xbc>
 8004650:	441c                	lw	a5,8(s0)
 8004652:	0505                	addi	a0,a0,1
 8004654:	17fd                	addi	a5,a5,-1
 8004656:	c41c                	sw	a5,8(s0)
 8004658:	401c                	lw	a5,0(s0)
 800465a:	00178713          	addi	a4,a5,1
 800465e:	c018                	sw	a4,0(s0)
 8004660:	01378023          	sb	s3,0(a5)
 8004664:	485c                	lw	a5,20(s0)
 8004666:	00a78963          	beq	a5,a0,8004678 <__swbuf_r+0x7c>
 800466a:	00c45783          	lhu	a5,12(s0)
 800466e:	8b85                	andi	a5,a5,1
 8004670:	cb81                	beqz	a5,8004680 <__swbuf_r+0x84>
 8004672:	47a9                	li	a5,10
 8004674:	00f91663          	bne	s2,a5,8004680 <__swbuf_r+0x84>
 8004678:	85a2                	mv	a1,s0
 800467a:	8526                	mv	a0,s1
 800467c:	2cc5                	jal	800496c <_fflush_r>
 800467e:	ed0d                	bnez	a0,80046b8 <__swbuf_r+0xbc>
 8004680:	40f2                	lw	ra,28(sp)
 8004682:	4462                	lw	s0,24(sp)
 8004684:	44d2                	lw	s1,20(sp)
 8004686:	49b2                	lw	s3,12(sp)
 8004688:	854a                	mv	a0,s2
 800468a:	4942                	lw	s2,16(sp)
 800468c:	6105                	addi	sp,sp,32
 800468e:	8082                	ret
 8004690:	ffffd797          	auipc	a5,0xffffd
 8004694:	06478793          	addi	a5,a5,100 # 80016f4 <__sf_fake_stdout>
 8004698:	00f41463          	bne	s0,a5,80046a0 <__swbuf_r+0xa4>
 800469c:	4480                	lw	s0,8(s1)
 800469e:	b759                	j	8004624 <__swbuf_r+0x28>
 80046a0:	ffffd797          	auipc	a5,0xffffd
 80046a4:	01478793          	addi	a5,a5,20 # 80016b4 <__sf_fake_stderr>
 80046a8:	f6f41ee3          	bne	s0,a5,8004624 <__swbuf_r+0x28>
 80046ac:	44c0                	lw	s0,12(s1)
 80046ae:	bf9d                	j	8004624 <__swbuf_r+0x28>
 80046b0:	85a2                	mv	a1,s0
 80046b2:	8526                	mv	a0,s1
 80046b4:	2021                	jal	80046bc <__swsetup_r>
 80046b6:	dd3d                	beqz	a0,8004634 <__swbuf_r+0x38>
 80046b8:	597d                	li	s2,-1
 80046ba:	b7d9                	j	8004680 <__swbuf_r+0x84>

080046bc <__swsetup_r>:
 80046bc:	1141                	addi	sp,sp,-16
 80046be:	c422                	sw	s0,8(sp)
 80046c0:	c226                	sw	s1,4(sp)
 80046c2:	c04a                	sw	s2,0(sp)
 80046c4:	c606                	sw	ra,12(sp)
 80046c6:	80c1a483          	lw	s1,-2036(gp) # 2000036c <_impure_ptr>
 80046ca:	892a                	mv	s2,a0
 80046cc:	842e                	mv	s0,a1
 80046ce:	c489                	beqz	s1,80046d8 <__swsetup_r+0x1c>
 80046d0:	4c9c                	lw	a5,24(s1)
 80046d2:	e399                	bnez	a5,80046d8 <__swsetup_r+0x1c>
 80046d4:	8526                	mv	a0,s1
 80046d6:	2e5d                	jal	8004a8c <__sinit>
 80046d8:	ffffd797          	auipc	a5,0xffffd
 80046dc:	ffc78793          	addi	a5,a5,-4 # 80016d4 <__sf_fake_stdin>
 80046e0:	02f41663          	bne	s0,a5,800470c <__swsetup_r+0x50>
 80046e4:	40c0                	lw	s0,4(s1)
 80046e6:	00c41783          	lh	a5,12(s0)
 80046ea:	0087f693          	andi	a3,a5,8
 80046ee:	0807c733          	zext.h	a4,a5
 80046f2:	eaad                	bnez	a3,8004764 <__swsetup_r+0xa8>
 80046f4:	01077693          	andi	a3,a4,16
 80046f8:	ea95                	bnez	a3,800472c <__swsetup_r+0x70>
 80046fa:	4725                	li	a4,9
 80046fc:	00e92023          	sw	a4,0(s2)
 8004700:	0407e793          	ori	a5,a5,64
 8004704:	00f41623          	sh	a5,12(s0)
 8004708:	557d                	li	a0,-1
 800470a:	a869                	j	80047a4 <__swsetup_r+0xe8>
 800470c:	ffffd797          	auipc	a5,0xffffd
 8004710:	fe878793          	addi	a5,a5,-24 # 80016f4 <__sf_fake_stdout>
 8004714:	00f41463          	bne	s0,a5,800471c <__swsetup_r+0x60>
 8004718:	4480                	lw	s0,8(s1)
 800471a:	b7f1                	j	80046e6 <__swsetup_r+0x2a>
 800471c:	ffffd797          	auipc	a5,0xffffd
 8004720:	f9878793          	addi	a5,a5,-104 # 80016b4 <__sf_fake_stderr>
 8004724:	fcf411e3          	bne	s0,a5,80046e6 <__swsetup_r+0x2a>
 8004728:	44c0                	lw	s0,12(s1)
 800472a:	bf75                	j	80046e6 <__swsetup_r+0x2a>
 800472c:	8b11                	andi	a4,a4,4
 800472e:	c70d                	beqz	a4,8004758 <__swsetup_r+0x9c>
 8004730:	584c                	lw	a1,52(s0)
 8004732:	c989                	beqz	a1,8004744 <__swsetup_r+0x88>
 8004734:	04440793          	addi	a5,s0,68
 8004738:	00f58463          	beq	a1,a5,8004740 <__swsetup_r+0x84>
 800473c:	854a                	mv	a0,s2
 800473e:	23e1                	jal	8004d06 <_free_r>
 8004740:	02042a23          	sw	zero,52(s0)
 8004744:	00c45783          	lhu	a5,12(s0)
 8004748:	00042223          	sw	zero,4(s0)
 800474c:	fdb7f793          	andi	a5,a5,-37
 8004750:	00f41623          	sh	a5,12(s0)
 8004754:	481c                	lw	a5,16(s0)
 8004756:	c01c                	sw	a5,0(s0)
 8004758:	00c45783          	lhu	a5,12(s0)
 800475c:	0087e793          	ori	a5,a5,8
 8004760:	00f41623          	sh	a5,12(s0)
 8004764:	481c                	lw	a5,16(s0)
 8004766:	ef81                	bnez	a5,800477e <__swsetup_r+0xc2>
 8004768:	00c45783          	lhu	a5,12(s0)
 800476c:	20000713          	li	a4,512
 8004770:	2807f793          	andi	a5,a5,640
 8004774:	00e78563          	beq	a5,a4,800477e <__swsetup_r+0xc2>
 8004778:	85a2                	mv	a1,s0
 800477a:	854a                	mv	a0,s2
 800477c:	21e5                	jal	8004c64 <__smakebuf_r>
 800477e:	00c41783          	lh	a5,12(s0)
 8004782:	0017f693          	andi	a3,a5,1
 8004786:	0807c733          	zext.h	a4,a5
 800478a:	c29d                	beqz	a3,80047b0 <__swsetup_r+0xf4>
 800478c:	4854                	lw	a3,20(s0)
 800478e:	00042423          	sw	zero,8(s0)
 8004792:	40d006b3          	neg	a3,a3
 8004796:	cc14                	sw	a3,24(s0)
 8004798:	4814                	lw	a3,16(s0)
 800479a:	4501                	li	a0,0
 800479c:	e681                	bnez	a3,80047a4 <__swsetup_r+0xe8>
 800479e:	08077713          	andi	a4,a4,128
 80047a2:	ff39                	bnez	a4,8004700 <__swsetup_r+0x44>
 80047a4:	40b2                	lw	ra,12(sp)
 80047a6:	4422                	lw	s0,8(sp)
 80047a8:	4492                	lw	s1,4(sp)
 80047aa:	4902                	lw	s2,0(sp)
 80047ac:	0141                	addi	sp,sp,16
 80047ae:	8082                	ret
 80047b0:	00277693          	andi	a3,a4,2
 80047b4:	4601                	li	a2,0
 80047b6:	e291                	bnez	a3,80047ba <__swsetup_r+0xfe>
 80047b8:	4850                	lw	a2,20(s0)
 80047ba:	c410                	sw	a2,8(s0)
 80047bc:	bff1                	j	8004798 <__swsetup_r+0xdc>

080047be <__register_exitproc>:
 80047be:	88aa                	mv	a7,a0
 80047c0:	9ec18513          	addi	a0,gp,-1556 # 2000054c <_global_atexit>
 80047c4:	4118                	lw	a4,0(a0)
 80047c6:	ef11                	bnez	a4,80047e2 <__register_exitproc+0x24>
 80047c8:	18000797          	auipc	a5,0x18000
 80047cc:	9f078793          	addi	a5,a5,-1552 # 200041b8 <_global_atexit0>
 80047d0:	c11c                	sw	a5,0(a0)
 80047d2:	00000513          	li	a0,0
 80047d6:	873e                	mv	a4,a5
 80047d8:	c509                	beqz	a0,80047e2 <__register_exitproc+0x24>
 80047da:	4118                	lw	a4,0(a0)
 80047dc:	08e7a423          	sw	a4,136(a5)
 80047e0:	873e                	mv	a4,a5
 80047e2:	435c                	lw	a5,4(a4)
 80047e4:	487d                	li	a6,31
 80047e6:	557d                	li	a0,-1
 80047e8:	04f84463          	blt	a6,a5,8004830 <__register_exitproc+0x72>
 80047ec:	02088b63          	beqz	a7,8004822 <__register_exitproc+0x64>
 80047f0:	08872803          	lw	a6,136(a4)
 80047f4:	02080e63          	beqz	a6,8004830 <__register_exitproc+0x72>
 80047f8:	2107c333          	sh2add	t1,a5,a6
 80047fc:	00c32023          	sw	a2,0(t1)
 8004800:	10082603          	lw	a2,256(a6)
 8004804:	28f01533          	bset	a0,zero,a5
 8004808:	8e49                	or	a2,a2,a0
 800480a:	10c82023          	sw	a2,256(a6)
 800480e:	08d32023          	sw	a3,128(t1)
 8004812:	4689                	li	a3,2
 8004814:	00d89763          	bne	a7,a3,8004822 <__register_exitproc+0x64>
 8004818:	10482683          	lw	a3,260(a6)
 800481c:	8ec9                	or	a3,a3,a0
 800481e:	10d82223          	sw	a3,260(a6)
 8004822:	00178693          	addi	a3,a5,1
 8004826:	c354                	sw	a3,4(a4)
 8004828:	20e7c7b3          	sh2add	a5,a5,a4
 800482c:	4501                	li	a0,0
 800482e:	c78c                	sw	a1,8(a5)
 8004830:	8082                	ret

08004832 <__sflush_r>:
 8004832:	00c5d783          	lhu	a5,12(a1)
 8004836:	1101                	addi	sp,sp,-32
 8004838:	cc22                	sw	s0,24(sp)
 800483a:	ca26                	sw	s1,20(sp)
 800483c:	ce06                	sw	ra,28(sp)
 800483e:	c84a                	sw	s2,16(sp)
 8004840:	c64e                	sw	s3,12(sp)
 8004842:	0087f713          	andi	a4,a5,8
 8004846:	84aa                	mv	s1,a0
 8004848:	842e                	mv	s0,a1
 800484a:	ef61                	bnez	a4,8004922 <__sflush_r+0xf0>
 800484c:	41d8                	lw	a4,4(a1)
 800484e:	00e04d63          	bgtz	a4,8004868 <__sflush_r+0x36>
 8004852:	41b8                	lw	a4,64(a1)
 8004854:	00e04a63          	bgtz	a4,8004868 <__sflush_r+0x36>
 8004858:	4501                	li	a0,0
 800485a:	40f2                	lw	ra,28(sp)
 800485c:	4462                	lw	s0,24(sp)
 800485e:	44d2                	lw	s1,20(sp)
 8004860:	4942                	lw	s2,16(sp)
 8004862:	49b2                	lw	s3,12(sp)
 8004864:	6105                	addi	sp,sp,32
 8004866:	8082                	ret
 8004868:	5458                	lw	a4,44(s0)
 800486a:	d77d                	beqz	a4,8004858 <__sflush_r+0x26>
 800486c:	6685                	lui	a3,0x1
 800486e:	0004a903          	lw	s2,0(s1)
 8004872:	8ff5                	and	a5,a5,a3
 8004874:	0004a023          	sw	zero,0(s1)
 8004878:	cbbd                	beqz	a5,80048ee <__sflush_r+0xbc>
 800487a:	4868                	lw	a0,84(s0)
 800487c:	00c45783          	lhu	a5,12(s0)
 8004880:	8b91                	andi	a5,a5,4
 8004882:	c799                	beqz	a5,8004890 <__sflush_r+0x5e>
 8004884:	405c                	lw	a5,4(s0)
 8004886:	8d1d                	sub	a0,a0,a5
 8004888:	585c                	lw	a5,52(s0)
 800488a:	c399                	beqz	a5,8004890 <__sflush_r+0x5e>
 800488c:	403c                	lw	a5,64(s0)
 800488e:	8d1d                	sub	a0,a0,a5
 8004890:	545c                	lw	a5,44(s0)
 8004892:	500c                	lw	a1,32(s0)
 8004894:	862a                	mv	a2,a0
 8004896:	4681                	li	a3,0
 8004898:	8526                	mv	a0,s1
 800489a:	9782                	jalr	a5
 800489c:	577d                	li	a4,-1
 800489e:	00c45783          	lhu	a5,12(s0)
 80048a2:	00e51c63          	bne	a0,a4,80048ba <__sflush_r+0x88>
 80048a6:	4094                	lw	a3,0(s1)
 80048a8:	4775                	li	a4,29
 80048aa:	06d76763          	bltu	a4,a3,8004918 <__sflush_r+0xe6>
 80048ae:	20400737          	lui	a4,0x20400
 80048b2:	0705                	addi	a4,a4,1
 80048b4:	48d75733          	bext	a4,a4,a3
 80048b8:	c325                	beqz	a4,8004918 <__sflush_r+0xe6>
 80048ba:	4818                	lw	a4,16(s0)
 80048bc:	00042223          	sw	zero,4(s0)
 80048c0:	c018                	sw	a4,0(s0)
 80048c2:	6705                	lui	a4,0x1
 80048c4:	8ff9                	and	a5,a5,a4
 80048c6:	c799                	beqz	a5,80048d4 <__sflush_r+0xa2>
 80048c8:	57fd                	li	a5,-1
 80048ca:	00f51463          	bne	a0,a5,80048d2 <__sflush_r+0xa0>
 80048ce:	409c                	lw	a5,0(s1)
 80048d0:	e391                	bnez	a5,80048d4 <__sflush_r+0xa2>
 80048d2:	c868                	sw	a0,84(s0)
 80048d4:	584c                	lw	a1,52(s0)
 80048d6:	0124a023          	sw	s2,0(s1)
 80048da:	ddbd                	beqz	a1,8004858 <__sflush_r+0x26>
 80048dc:	04440793          	addi	a5,s0,68
 80048e0:	00f58463          	beq	a1,a5,80048e8 <__sflush_r+0xb6>
 80048e4:	8526                	mv	a0,s1
 80048e6:	2105                	jal	8004d06 <_free_r>
 80048e8:	02042a23          	sw	zero,52(s0)
 80048ec:	b7b5                	j	8004858 <__sflush_r+0x26>
 80048ee:	500c                	lw	a1,32(s0)
 80048f0:	4685                	li	a3,1
 80048f2:	4601                	li	a2,0
 80048f4:	8526                	mv	a0,s1
 80048f6:	9702                	jalr	a4
 80048f8:	57fd                	li	a5,-1
 80048fa:	f8f511e3          	bne	a0,a5,800487c <__sflush_r+0x4a>
 80048fe:	409c                	lw	a5,0(s1)
 8004900:	dfb5                	beqz	a5,800487c <__sflush_r+0x4a>
 8004902:	4775                	li	a4,29
 8004904:	00e78563          	beq	a5,a4,800490e <__sflush_r+0xdc>
 8004908:	4759                	li	a4,22
 800490a:	00e79563          	bne	a5,a4,8004914 <__sflush_r+0xe2>
 800490e:	0124a023          	sw	s2,0(s1)
 8004912:	b799                	j	8004858 <__sflush_r+0x26>
 8004914:	00c45783          	lhu	a5,12(s0)
 8004918:	0407e793          	ori	a5,a5,64
 800491c:	00f41623          	sh	a5,12(s0)
 8004920:	bf2d                	j	800485a <__sflush_r+0x28>
 8004922:	0105a983          	lw	s3,16(a1)
 8004926:	f20989e3          	beqz	s3,8004858 <__sflush_r+0x26>
 800492a:	0005a903          	lw	s2,0(a1)
 800492e:	8b8d                	andi	a5,a5,3
 8004930:	0135a023          	sw	s3,0(a1)
 8004934:	41390933          	sub	s2,s2,s3
 8004938:	4701                	li	a4,0
 800493a:	e391                	bnez	a5,800493e <__sflush_r+0x10c>
 800493c:	49d8                	lw	a4,20(a1)
 800493e:	c418                	sw	a4,8(s0)
 8004940:	f1205ce3          	blez	s2,8004858 <__sflush_r+0x26>
 8004944:	541c                	lw	a5,40(s0)
 8004946:	500c                	lw	a1,32(s0)
 8004948:	86ca                	mv	a3,s2
 800494a:	864e                	mv	a2,s3
 800494c:	8526                	mv	a0,s1
 800494e:	9782                	jalr	a5
 8004950:	00a04a63          	bgtz	a0,8004964 <__sflush_r+0x132>
 8004954:	00c45783          	lhu	a5,12(s0)
 8004958:	557d                	li	a0,-1
 800495a:	0407e793          	ori	a5,a5,64
 800495e:	00f41623          	sh	a5,12(s0)
 8004962:	bde5                	j	800485a <__sflush_r+0x28>
 8004964:	99aa                	add	s3,s3,a0
 8004966:	40a90933          	sub	s2,s2,a0
 800496a:	bfd9                	j	8004940 <__sflush_r+0x10e>

0800496c <_fflush_r>:
 800496c:	499c                	lw	a5,16(a1)
 800496e:	c3a5                	beqz	a5,80049ce <_fflush_r+0x62>
 8004970:	1101                	addi	sp,sp,-32
 8004972:	cc22                	sw	s0,24(sp)
 8004974:	ce06                	sw	ra,28(sp)
 8004976:	842a                	mv	s0,a0
 8004978:	c511                	beqz	a0,8004984 <_fflush_r+0x18>
