Certificate:
    Data:
        Version: 1 (0x0)
        Serial Number:
            65:f8:12:12:81:db:f4:e5:f8:16:40:30:f9:30:e1:71:d8:07:b6:ad
        Signature Algorithm: ED25519
        Issuer: C = CN, ST = Jiangsu, L = Suzhou, O = GD, OU = GD, CN = www.gigadevice.com
        Validity
            Not Before: Oct 23 07:16:43 2019 GMT
            Not After : Oct 20 07:16:43 2029 GMT
        Subject: C = CN, ST = Jiangsu, L = Suzhou, O = GD, OU = GD, CN = www.gigadevice.com
        Subject Public Key Info:
            Public Key Algorithm: ED25519
                ED25519 Public-Key:
                pub:
                    d4:4d:42:9f:67:81:dc:40:d3:82:fb:d8:8b:c4:1f:
                    13:5c:a2:ae:3b:26:f7:c2:2c:65:4b:c2:b7:17:84:
                    4d:a5
    Signature Algorithm: ED25519
         e1:9b:fa:d7:e9:1e:ca:2d:d0:a5:81:3c:e8:b4:f6:cc:31:bf:
         fc:5c:23:ae:e0:fc:33:ea:19:ad:04:c7:29:25:b8:e1:25:9a:
         cc:55:46:18:ce:e0:c7:b6:f9:9d:aa:23:37:3f:a7:46:a9:28:
         50:dd:c3:94:53:af:7f:81:22:0a
-----BEGIN CERTIFICATE-----
MIIBiTCCATsCFGX4EhKB2/Tl+BZAMPkw4XHYB7atMAUGAytlcDBnMQswCQYDVQQG
EwJDTjEQMA4GA1UECAwHSmlhbmdzdTEPMA0GA1UEBwwGU3V6aG91MQswCQYDVQQK
DAJHRDELMAkGA1UECwwCR0QxGzAZBgNVBAMMEnd3dy5naWdhZGV2aWNlLmNvbTAe
Fw0xOTEwMjMwNzE2NDNaFw0yOTEwMjAwNzE2NDNaMGcxCzAJBgNVBAYTAkNOMRAw
DgYDVQQIDAdKaWFuZ3N1MQ8wDQYDVQQHDAZTdXpob3UxCzAJBgNVBAoMAkdEMQsw
CQYDVQQLDAJHRDEbMBkGA1UEAwwSd3d3LmdpZ2FkZXZpY2UuY29tMCowBQYDK2Vw
AyEA1E1Cn2eB3EDTgvvYi8QfE1yirjsm98IsZUvCtxeETaUwBQYDK2VwA0EA4Zv6
1+keyi3QpYE86LT2zDG//FwjruD8M+oZrQTHKSW44SWazFVGGM7gx7b5naojNz+n
RqkoUN3DlFOvf4EiCg==
-----END CERTIFICATE-----
