Certificate:
    Data:
        Version: 1 (0x0)
        Serial Number:
            6c:83:ee:63:9e:df:dd:10:5c:f0:d8:f1:81:d5:c9:2b:85:58:03:94
        Signature Algorithm: ecdsa-with-SHA256
        Issuer: C = CN, ST = JiangSu, L = Suzhou, O = Internet Widgits Pty Ltd, CN = www.gigadevice.com
        Validity
            Not Before: Jun 28 02:01:39 2022 GMT
            Not After : Jun 25 02:01:39 2032 GMT
        Subject: C = CN, ST = JiangSu, L = Suzhou, O = GD, CN = www.gigadevice.com
        Subject Public Key Info:
            Public Key Algorithm: id-ecPublicKey
                Public-Key: (256 bit)
                pub:
                    04:d0:3b:85:d4:5d:c9:a8:e2:e9:80:a6:c9:90:25:
                    a5:44:ec:bc:24:0b:02:59:0d:db:79:3e:a1:6e:ba:
                    ee:5b:27:70:c6:b7:3b:d8:f4:32:81:a5:8a:50:af:
                    57:d3:ff:2a:88:4e:2a:bd:e5:89:3e:0e:da:bc:9e:
                    f5:55:8e:d1:ca
                ASN1 OID: prime256v1
                NIST CURVE: P-256
    Signature Algorithm: ecdsa-with-SHA256
         30:44:02:20:40:32:17:4c:ad:1f:39:1b:0c:d1:91:c2:53:fa:
         d7:74:cb:9b:fe:69:81:89:4c:db:bf:76:8f:ff:4a:ac:ac:16:
         02:20:28:d1:87:3a:50:c6:0f:82:b4:c2:2c:dd:7e:d1:f6:b5:
         2c:62:33:35:71:31:b9:a5:76:ce:3a:94:ba:e5:8b:d7
-----BEGIN CERTIFICATE-----
MIIBxDCCAWsCFGyD7mOe390QXPDY8YHVySuFWAOUMAoGCCqGSM49BAMCMHAxCzAJ
BgNVBAYTAkNOMRAwDgYDVQQIDAdKaWFuZ1N1MQ8wDQYDVQQHDAZTdXpob3UxITAf
BgNVBAoMGEludGVybmV0IFdpZGdpdHMgUHR5IEx0ZDEbMBkGA1UEAwwSd3d3Lmdp
Z2FkZXZpY2UuY29tMB4XDTIyMDYyODAyMDEzOVoXDTMyMDYyNTAyMDEzOVowWjEL
MAkGA1UEBhMCQ04xEDAOBgNVBAgMB0ppYW5nU3UxDzANBgNVBAcMBlN1emhvdTEL
MAkGA1UECgwCR0QxGzAZBgNVBAMMEnd3dy5naWdhZGV2aWNlLmNvbTBZMBMGByqG
SM49AgEGCCqGSM49AwEHA0IABNA7hdRdyaji6YCmyZAlpUTsvCQLAlkN23k+oW66
7lsncMa3O9j0MoGlilCvV9P/KohOKr3liT4O2rye9VWO0cowCgYIKoZIzj0EAwID
RwAwRAIgQDIXTK0fORsM0ZHCU/rXdMub/mmBiUzbv3aP/0qsrBYCICjRhzpQxg+C
tMIs3X7R9rUsYjM1cTG5pXbOOpS65YvX
-----END CERTIFICATE-----
